gpasm-1.4.0 #1106 (Oct  6 2014) obj\Debug\SW.   3-31-2020  02:49:32         PAGE  1


LOC    OBJECT CODE    LINE  SOURCE TEXT
  VALUE

                      00001 ;--------------------------------------------------------
                      00002 ; File Created by SDCC : free open source ANSI-C Compiler
                      00003 ; Version 3.5.0 #9253 (Jun 20 2015) (MINGW32)
                      00004 ; This file was generated Tue Mar 31 02:49:32 2020
                      00005 ;--------------------------------------------------------
                      00006 ; PIC port for the 14-bit core
                      00007 ;--------------------------------------------------------
                      00008         .file   "SW.c"
                      00009         list    p=16f877a
                      00010         radix dec
                      00011         include "p16f877a.inc"
                      00001         LIST
                      00002 
                      00003 ;==========================================================================
                      00004 ; Build date : Aug 07 2014
                      00005 ;  MPASM PIC16F877A processor include
                      00006 ; 
                      00007 ;  (c) Copyright 1999-2014 Microchip Technology, All rights reserved
                      00008 ;==========================================================================
                      00009 
                      00567         LIST
                      00012 ;--------------------------------------------------------
                      00013 ; external declarations
                      00014 ;--------------------------------------------------------
  0000                00015         extern  __print_format
  0000                00016         extern  _printf_small
  0000                00017         extern  _printf
  0000                00018         extern  _vprintf
  0000                00019         extern  _sprintf
  0000                00020         extern  _vsprintf
  0000                00021         extern  _puts
  0000                00022         extern  _gets
  0000                00023         extern  _getchar
  0000                00024         extern  _putchar
  0000                00025         extern  _calloc
  0000                00026         extern  _malloc
  0000                00027         extern  _realloc
  0000                00028         extern  _free
  0000                00029         extern  _abs
  0000                00030         extern  _labs
  0000                00031         extern  _atof
  0000                00032         extern  _atoi
  0000                00033         extern  _atol
  0000                00034         extern  __uitoa
  0000                00035         extern  __itoa
  0000                00036         extern  __ultoa
  0000                00037         extern  __ltoa
  0000                00038         extern  _rand
  0000                00039         extern  _srand
  0000                00040         extern  _TMR_Init
  0000                00041         extern  _TMR_Start
  0000                00042         extern  _TMR_CheckOverFlow
  0000                00043         extern  _TMR_Stop
gpasm-1.4.0 #1106 (Oct  6 2014) obj\Debug\SW.   3-31-2020  02:49:32         PAGE  2


LOC    OBJECT CODE    LINE  SOURCE TEXT
  VALUE

  0000                00044         extern  _TMR_Update
  0000                00045         extern  _STATUSbits
  0000                00046         extern  _PORTAbits
  0000                00047         extern  _PORTBbits
  0000                00048         extern  _PORTCbits
  0000                00049         extern  _PORTDbits
  0000                00050         extern  _PORTEbits
  0000                00051         extern  _INTCONbits
  0000                00052         extern  _PIR1bits
  0000                00053         extern  _PIR2bits
  0000                00054         extern  _T1CONbits
  0000                00055         extern  _T2CONbits
  0000                00056         extern  _SSPCONbits
  0000                00057         extern  _CCP1CONbits
  0000                00058         extern  _RCSTAbits
  0000                00059         extern  _CCP2CONbits
  0000                00060         extern  _ADCON0bits
  0000                00061         extern  _OPTION_REGbits
  0000                00062         extern  _TRISAbits
  0000                00063         extern  _TRISBbits
  0000                00064         extern  _TRISCbits
  0000                00065         extern  _TRISDbits
  0000                00066         extern  _TRISEbits
  0000                00067         extern  _PIE1bits
  0000                00068         extern  _PIE2bits
  0000                00069         extern  _PCONbits
  0000                00070         extern  _SSPCON2bits
  0000                00071         extern  _SSPSTATbits
  0000                00072         extern  _TXSTAbits
  0000                00073         extern  _CMCONbits
  0000                00074         extern  _CVRCONbits
  0000                00075         extern  _ADCON1bits
  0000                00076         extern  _EECON1bits
  0000                00077         extern  _INDF
  0000                00078         extern  _TMR0
  0000                00079         extern  _PCL
  0000                00080         extern  _STATUS
  0000                00081         extern  _FSR
  0000                00082         extern  _PORTA
  0000                00083         extern  _PORTB
  0000                00084         extern  _PORTC
  0000                00085         extern  _PORTD
  0000                00086         extern  _PORTE
  0000                00087         extern  _PCLATH
  0000                00088         extern  _INTCON
  0000                00089         extern  _PIR1
  0000                00090         extern  _PIR2
  0000                00091         extern  _TMR1
  0000                00092         extern  _TMR1L
  0000                00093         extern  _TMR1H
  0000                00094         extern  _T1CON
  0000                00095         extern  _TMR2
  0000                00096         extern  _T2CON
gpasm-1.4.0 #1106 (Oct  6 2014) obj\Debug\SW.   3-31-2020  02:49:32         PAGE  3


LOC    OBJECT CODE    LINE  SOURCE TEXT
  VALUE

  0000                00097         extern  _SSPBUF
  0000                00098         extern  _SSPCON
  0000                00099         extern  _CCPR1
  0000                00100         extern  _CCPR1L
  0000                00101         extern  _CCPR1H
  0000                00102         extern  _CCP1CON
  0000                00103         extern  _RCSTA
  0000                00104         extern  _TXREG
  0000                00105         extern  _RCREG
  0000                00106         extern  _CCPR2
  0000                00107         extern  _CCPR2L
  0000                00108         extern  _CCPR2H
  0000                00109         extern  _CCP2CON
  0000                00110         extern  _ADRESH
  0000                00111         extern  _ADCON0
  0000                00112         extern  _OPTION_REG
  0000                00113         extern  _TRISA
  0000                00114         extern  _TRISB
  0000                00115         extern  _TRISC
  0000                00116         extern  _TRISD
  0000                00117         extern  _TRISE
  0000                00118         extern  _PIE1
  0000                00119         extern  _PIE2
  0000                00120         extern  _PCON
  0000                00121         extern  _SSPCON2
  0000                00122         extern  _PR2
  0000                00123         extern  _SSPADD
  0000                00124         extern  _SSPSTAT
  0000                00125         extern  _TXSTA
  0000                00126         extern  _SPBRG
  0000                00127         extern  _CMCON
  0000                00128         extern  _CVRCON
  0000                00129         extern  _ADRESL
  0000                00130         extern  _ADCON1
  0000                00131         extern  _EEDATA
  0000                00132         extern  _EEADR
  0000                00133         extern  _EEDATH
  0000                00134         extern  _EEADRH
  0000                00135         extern  _EECON1
  0000                00136         extern  _EECON2
  0000                00137         extern  __mulchar
                      00138 
  0000                00139         extern PSAVE
  0000                00140         extern SSAVE
  0000                00141         extern WSAVE
  0000                00142         extern STK12
  0000                00143         extern STK11
  0000                00144         extern STK10
  0000                00145         extern STK09
  0000                00146         extern STK08
  0000                00147         extern STK07
  0000                00148         extern STK06
  0000                00149         extern STK05
gpasm-1.4.0 #1106 (Oct  6 2014) obj\Debug\SW.   3-31-2020  02:49:32         PAGE  4


LOC    OBJECT CODE    LINE  SOURCE TEXT
  VALUE

  0000                00150         extern STK04
  0000                00151         extern STK03
  0000                00152         extern STK02
  0000                00153         extern STK01
  0000                00154         extern STK00
                      00155 ;--------------------------------------------------------
                      00156 ; global declarations
                      00157 ;--------------------------------------------------------
  0000                00158         global  _SW_Update
  0000                00159         global  _SW_GetState
  0000                00160         global  _SW_Init
                      00161 
                      00162 ;--------------------------------------------------------
                      00163 ; global definitions
                      00164 ;--------------------------------------------------------
                      00165 ;--------------------------------------------------------
                      00166 ; absolute symbol definitions
                      00167 ;--------------------------------------------------------
                      00168 ;--------------------------------------------------------
                      00169 ; compiler-defined variables
                      00170 ;--------------------------------------------------------
                      00171 UDL_SW_0        udata
0000                  00172 r0x1017 res     1
0001                  00173 r0x1018 res     1
0002                  00174 r0x1019 res     1
0003                  00175 r0x101A res     1
0004                  00176 r0x101B res     1
0005                  00177 r0x1013 res     1
0006                  00178 r0x1014 res     1
0007                  00179 r0x1015 res     1
0008                  00180 r0x1016 res     1
0009                  00181 r0x100B res     1
000A                  00182 r0x100C res     1
000B                  00183 r0x100D res     1
000C                  00184 r0x100E res     1
000D                  00185 r0x100F res     1
000E                  00186 r0x1010 res     1
000F                  00187 r0x1011 res     1
0010                  00188 r0x1012 res     1
0011                  00189 _SWs_Info       res     9
001A                  00190 _SW_Update_SW_counter_1_41      res     2
                      00191 ;--------------------------------------------------------
                      00192 ; initialized data
                      00193 ;--------------------------------------------------------
                      00194 ;--------------------------------------------------------
                      00195 ; overlayable items in internal ram 
                      00196 ;--------------------------------------------------------
                      00197 ;       udata_ovr
                      00198 ;--------------------------------------------------------
                      00199 ; code
                      00200 ;--------------------------------------------------------
                      00201 code_SW code
                      00202 ;***
gpasm-1.4.0 #1106 (Oct  6 2014) obj\Debug\SW.   3-31-2020  02:49:32         PAGE  5


LOC    OBJECT CODE    LINE  SOURCE TEXT
  VALUE

                      00203 ;  pBlock Stats: dbName = C
                      00204 ;***
                      00205 ;entry:  _SW_Update     ;Function start
                      00206 ; 2 exit points
                      00207 ;has an exit
                      00208 ;functions called:
                      00209 ;   __mulchar
                      00210 ;   __mulchar
                      00211 ;   __mulchar
                      00212 ;   __mulchar
                      00213 ;9 compiler assigned registers:
                      00214 ;   r0x100B
                      00215 ;   STK00
                      00216 ;   r0x100C
                      00217 ;   r0x100D
                      00218 ;   r0x100E
                      00219 ;   r0x100F
                      00220 ;   r0x1010
                      00221 ;   r0x1011
                      00222 ;   r0x1012
                      00223 ;; Starting pCode block
                      00224 ;;; /home/sdcc-builder/build/sdcc-build/orig/sdcc/src/pic14/gen.c:2316:resultRemat *{*
                      00225 ;;; /home/sdcc-builder/build/sdcc-build/orig/sdcc/src/pic14/gen.c:2760:genLabel *{*
                      00226 ;; ***  genLabel  2763
                      00227 ;;; /home/sdcc-builder/build/sdcc-build/orig/sdcc/src/pic14/gen.c:2316:resultRemat *{*
                      00228 ;;; /home/sdcc-builder/build/sdcc-build/orig/sdcc/src/pic14/gen.c:2340:genFunction *{*
                      00229 ;; ***  genFunction  2342 curr label offset=10previous max_key=0 
0000                  00230 _SW_Update      ;Function start
                      00231 ; 2 exit points
                      00232 ;;; /home/sdcc-builder/build/sdcc-build/orig/sdcc/src/pic14/gen.c:2316:resultRemat *{*
                      00233 ;; ***  genPlus  611
                      00234 ;;; /home/sdcc-builder/build/sdcc-build/orig/sdcc/src/pic14/genarith.c:612:genPlus *{*
                      00235 ;; ***  aopForSym 315
                      00236 ;;      327 sym->rname = _SW_Update_SW_counter_1_41, size = 2
                      00237 ;;      575
                      00238 ;;      line = 618 result AOP_DIR=_SW_Update_SW_counter_1_41, size=2, left AOP_DIR=_SW_Update_SW_counter
                            _1_41, size=2, right AOP_LIT=0x0a, size=2
                      00239 ;;; /home/sdcc-builder/build/sdcc-build/orig/sdcc/src/pic14/genarith.c:142:genPlusIncr *{*
                      00240 ;; ***  genPlusIncr  144
                      00241 ;;      result AOP_DIR, left AOP_DIR, right AOP_LIT
                      00242 ;;      genPlusIncr  156
                      00243 ;;      adding lit to something. size 2
                      00244 ;;; /home/sdcc-builder/build/sdcc-build/orig/sdcc/src/pic14/genarith.c:269:genAddLit *{*
                      00245 ;; ***  genAddLit  270
                      00246 ;; hi = 0       genAddLit  328
                      00247 ;; >>> /home/sdcc-builder/build/sdcc-build/orig/sdcc/src/pic14/genarith.c:344:genAddLit
                      00248         .line   77; "SW.c"      SW_counter += TMR_TICK_MS;
0000   300A           00249         MOVLW   0x0a
                      00250 ;; >>> /home/sdcc-builder/build/sdcc-build/orig/sdcc/src/pic14/genarith.c:345:genAddLit
                      00251 ;;      1009
                      00252 ;;      1028  _SW_Update_SW_counter_1_41   offset=0
0001   ???? ????      00253         BANKSEL _SW_Update_SW_counter_1_41
0003   07??           00254         ADDWF   _SW_Update_SW_counter_1_41,F
gpasm-1.4.0 #1106 (Oct  6 2014) obj\Debug\SW.   3-31-2020  02:49:32         PAGE  6


LOC    OBJECT CODE    LINE  SOURCE TEXT
  VALUE

                      00255 ;; >>> /home/sdcc-builder/build/sdcc-build/orig/sdcc/src/pic14/genarith.c:346:genAddLit
0004   1803           00256         BTFSC   STATUS,0
                      00257 ;; >>> /home/sdcc-builder/build/sdcc-build/orig/sdcc/src/pic14/genarith.c:347:genAddLit
                      00258 ;;      1009
                      00259 ;;      1028  _SW_Update_SW_counter_1_41   offset=1
0005   0A??           00260         INCF    (_SW_Update_SW_counter_1_41 + 1),F
                      00261 ;; ***  addSign  861
                      00262 ;;; /home/sdcc-builder/build/sdcc-build/orig/sdcc/src/pic14/genarith.c:862:addSign *{*
                      00263 ;;; /home/sdcc-builder/build/sdcc-build/orig/sdcc/src/pic14/gen.c:2316:resultRemat *{*
                      00264 ;;; /home/sdcc-builder/build/sdcc-build/orig/sdcc/src/pic14/gen.c:3619:genCmpEq *{*
                      00265 ;; ***  genCmpEq  3620
                      00266 ;; ifx is non-null
                      00267 ;; ***  aopForSym 315
                      00268 ;;      327 sym->rname = _SW_Update_SW_counter_1_41, size = 2
                      00269 ;;      line = 3631 result AOP_CRY=0x00, size=0, left AOP_DIR=_SW_Update_SW_counter_1_41, size=2, right 
                            AOP_LIT=0x14, size=2
                      00270 ;; ***  mov2w  1381  offset=0
                      00271 ;; >>> /home/sdcc-builder/build/sdcc-build/orig/sdcc/src/pic14/gen.c:1386:mov2w
                      00272 ;;      1009
                      00273 ;;      1028  _SW_Update_SW_counter_1_41   offset=0
                      00274         .line   79; "SW.c"      if (SW_counter != SW_PERIOD_MS){
0006   08??           00275         MOVF    _SW_Update_SW_counter_1_41,W
                      00276 ;; >>> /home/sdcc-builder/build/sdcc-build/orig/sdcc/src/pic14/gen.c:3685:genCmpEq
0007   3A14           00277         XORLW   0x14
                      00278 ;; >>> /home/sdcc-builder/build/sdcc-build/orig/sdcc/src/pic14/gen.c:3687:genCmpEq
0008   1D03           00279         BTFSS   STATUS,2
                      00280 ;; >>> /home/sdcc-builder/build/sdcc-build/orig/sdcc/src/pic14/gen.c:3690:genCmpEq
                      00281 ;; ***  popGetLabel  key=69, label offset 14
0009   2???           00282         GOTO    _00183_DS_
                      00283 ;; ***  mov2w  1381  offset=1
                      00284 ;; >>> /home/sdcc-builder/build/sdcc-build/orig/sdcc/src/pic14/gen.c:1386:mov2w
                      00285 ;;      1009
                      00286 ;;      1028  _SW_Update_SW_counter_1_41   offset=1
000A   08??           00287         MOVF    (_SW_Update_SW_counter_1_41 + 1),W
                      00288 ;; >>> /home/sdcc-builder/build/sdcc-build/orig/sdcc/src/pic14/gen.c:3685:genCmpEq
                      00289         .line   80; "SW.c"      return;
000B   3A00           00290         XORLW   0x00
                      00291         .line   83; "SW.c"      SW_counter = 0;
000C   1D03           00292         BTFSS   STATUS,2
000D                  00293 _00183_DS_
000D   2???           00294         GOTO    _00144_DS_
000E   ???? ????      00295         BANKSEL _SW_Update_SW_counter_1_41
0010   01??           00296         CLRF    _SW_Update_SW_counter_1_41
0011   01??           00297         CLRF    (_SW_Update_SW_counter_1_41 + 1)
                      00298 ;;; /home/sdcc-builder/build/sdcc-build/orig/sdcc/src/pic14/gen.c:2316:resultRemat *{*
                      00299 ;;; /home/sdcc-builder/build/sdcc-build/orig/sdcc/src/pic14/gen.c:2316:resultRemat *{*
                      00300 ;;; /home/sdcc-builder/build/sdcc-build/orig/sdcc/src/pic14/gen.c:6927:genAssign *{*
                      00301 ;; ***  genAssign  6928
                      00302 ;;      694 register type nRegs=1
                      00303 ;;      line = 6937 result AOP_REG=r0x1053, size=1, left -=-, size=0, right AOP_LIT=0x00, size=1
                      00304 ;; ***  genAssign  7023
                      00305 ;; >>> /home/sdcc-builder/build/sdcc-build/orig/sdcc/src/pic14/gen.c:7035:genAssign
                      00306 ;;      1109 rIdx = r0x1053 
gpasm-1.4.0 #1106 (Oct  6 2014) obj\Debug\SW.   3-31-2020  02:49:32         PAGE  7


LOC    OBJECT CODE    LINE  SOURCE TEXT
  VALUE

                      00307         .line   86; "SW.c"      for (index = SW_PLUS; index < N_SWITCHES; index++)
0012   ???? ????      00308         BANKSEL r0x100B
0014   01??           00309         CLRF    r0x100B
                      00310 ;;; /home/sdcc-builder/build/sdcc-build/orig/sdcc/src/pic14/gen.c:2316:resultRemat *{*
                      00311 ;;; /home/sdcc-builder/build/sdcc-build/orig/sdcc/src/pic14/gen.c:2760:genLabel *{*
                      00312 ;; ***  genLabel  2763
                      00313 ;;; /home/sdcc-builder/build/sdcc-build/orig/sdcc/src/pic14/gen.c:2316:resultRemat *{*
                      00314 ;;; /home/sdcc-builder/build/sdcc-build/orig/sdcc/src/pic14/gen.c:2878:genMult *{*
                      00315 ;; ***  genMult  2880
                      00316 ;;      694 register type nRegs=1
                      00317 ;;      694 register type nRegs=2
                      00318 ;;      line = 2886 result AOP_REG=r0x1054, size=2, left AOP_REG=r0x1053, size=1, right AOP_LIT=0x03, si
                            ze=1
                      00319 ;;; /home/sdcc-builder/build/sdcc-build/orig/sdcc/src/pic14/gen.c:2816:genMultOneByte *{*
                      00320 ;; ***  genMultOneByte  2818
                      00321 ;;      line = 2819 result AOP_REG=r0x1054, size=2, left AOP_REG=r0x1053, size=1, right AOP_LIT=0x03, si
                            ze=1
                      00322 ;;      line = 2820, signs: result AOP_REG=u, left AOP_REG=u, right AOP_LIT=u
                      00323 ;; ***  mov2w  1381  offset=0
                      00324 ;; >>> /home/sdcc-builder/build/sdcc-build/orig/sdcc/src/pic14/gen.c:1384:mov2w
0015                  00325 _00142_DS_
                      00326         .line   89; "SW.c"      SWs_Info[index].sw_samples[0] = SWs_Info[index].sw_samples[1];
0015   3003           00327         MOVLW   0x03
                      00328 ;; >>> /home/sdcc-builder/build/sdcc-build/orig/sdcc/src/pic14/gen.c:2840:genMultOneByte
                      00329 ;; ***  popRegFromIdx,1042  , rIdx=0x7f
0016   00??           00330         MOVWF   STK00
                      00331 ;; ***  mov2w  1381  offset=0
                      00332 ;; >>> /home/sdcc-builder/build/sdcc-build/orig/sdcc/src/pic14/gen.c:1386:mov2w
                      00333 ;;      1109 rIdx = r0x1053 
0017   ???? ????      00334         BANKSEL r0x100B
0019   08??           00335         MOVF    r0x100B,W
                      00336 ;; >>> /home/sdcc-builder/build/sdcc-build/orig/sdcc/src/pic14/gen.c:1433:call_libraryfunc
001A   ???? ????      00337         PAGESEL __mulchar
                      00338 ;; >>> /home/sdcc-builder/build/sdcc-build/orig/sdcc/src/pic14/gen.c:1435:call_libraryfunc
001C   2???           00339         CALL    __mulchar
                      00340 ;; >>> /home/sdcc-builder/build/sdcc-build/orig/sdcc/src/pic14/gen.c:1437:call_libraryfunc
001D   ???? ????      00341         PAGESEL $
                      00342 ;; >>> /home/sdcc-builder/build/sdcc-build/orig/sdcc/src/pic14/gen.c:1393:movwf
                      00343 ;;      1109 rIdx = r0x1054 
001F   ???? ????      00344         BANKSEL r0x100C
0021   00??           00345         MOVWF   r0x100C
                      00346 ;; ***  addSign  861
                      00347 ;;; /home/sdcc-builder/build/sdcc-build/orig/sdcc/src/pic14/genarith.c:862:addSign *{*
                      00348 ;; >>> /home/sdcc-builder/build/sdcc-build/orig/sdcc/src/pic14/genarith.c:881:addSign
                      00349 ;;      1109 rIdx = r0x1055 
0022   01??           00350         CLRF    r0x100D
                      00351 ;;; /home/sdcc-builder/build/sdcc-build/orig/sdcc/src/pic14/gen.c:2316:resultRemat *{*
                      00352 ;; ***  genPlus  611
                      00353 ;;; /home/sdcc-builder/build/sdcc-build/orig/sdcc/src/pic14/genarith.c:612:genPlus *{*
                      00354 ;;      613
                      00355 ;;      aopForRemat 392
                      00356 ;;      418: rname _SWs_Info, val 0, const = 0
                      00357 ;;      694 register type nRegs=2
gpasm-1.4.0 #1106 (Oct  6 2014) obj\Debug\SW.   3-31-2020  02:49:32         PAGE  8


LOC    OBJECT CODE    LINE  SOURCE TEXT
  VALUE

                      00358 ;;      694 register type nRegs=2
                      00359 ;;      833: aopGet AOP_PCODE type PO_IMMEDIATE
                      00360 ;;      _SWs_Info
                      00361 ;;      line = 618 result AOP_REG=r0x1056, size=2, left AOP_PCODE=_SWs_Info, size=2, right AOP_REG=r0x10
                            54, size=2
                      00362 ;;; /home/sdcc-builder/build/sdcc-build/orig/sdcc/src/pic14/genarith.c:142:genPlusIncr *{*
                      00363 ;; ***  genPlusIncr  144
                      00364 ;;      result AOP_REG, left AOP_PCODE, right AOP_REG
                      00365 ;; ***  genPlus  717
                      00366 ;;      833: aopGet AOP_PCODE type PO_IMMEDIATE
                      00367 ;;      _SWs_Info
                      00368 ;; >>> /home/sdcc-builder/build/sdcc-build/orig/sdcc/src/pic14/genarith.c:726:genPlus
                      00369 ;;      1109 rIdx = r0x1054 
0023   08??           00370         MOVF    r0x100C,W
                      00371 ;; >>> /home/sdcc-builder/build/sdcc-build/orig/sdcc/src/pic14/genarith.c:735:genPlus
0024   3E??           00372         ADDLW   (_SWs_Info + 0)
                      00373 ;; >>> /home/sdcc-builder/build/sdcc-build/orig/sdcc/src/pic14/genarith.c:736:genPlus
                      00374 ;;      1109 rIdx = r0x1056 
0025   00??           00375         MOVWF   r0x100E
                      00376 ;; >>> /home/sdcc-builder/build/sdcc-build/orig/sdcc/src/pic14/genarith.c:771:genPlus
0026   30??           00377         MOVLW   high (_SWs_Info + 0)
                      00378 ;; >>> /home/sdcc-builder/build/sdcc-build/orig/sdcc/src/pic14/genarith.c:772:genPlus
                      00379 ;;      1109 rIdx = r0x1057 
0027   00??           00380         MOVWF   r0x100F
                      00381 ;; >>> /home/sdcc-builder/build/sdcc-build/orig/sdcc/src/pic14/genarith.c:774:genPlus
                      00382 ;;      1109 rIdx = r0x1055 
0028   3000           00383         MOVLW   0x00
                      00384 ;; >>> /home/sdcc-builder/build/sdcc-build/orig/sdcc/src/pic14/genarith.c:775:genPlus
0029   1803           00385         BTFSC   STATUS,0
                      00386 ;; >>> /home/sdcc-builder/build/sdcc-build/orig/sdcc/src/pic14/genarith.c:776:genPlus
                      00387 ;;      1109 rIdx = r0x1055 
002A   0F??           00388         INCFSZ  r0x100D,W
                      00389 ;; >>> /home/sdcc-builder/build/sdcc-build/orig/sdcc/src/pic14/genarith.c:777:genPlus
                      00390 ;;      1109 rIdx = r0x1057 
002B   07??           00391         ADDWF   r0x100F,F
                      00392 ;;; /home/sdcc-builder/build/sdcc-build/orig/sdcc/src/pic14/gen.c:2316:resultRemat *{*
                      00393 ;; ***  genPlus  611
                      00394 ;;; /home/sdcc-builder/build/sdcc-build/orig/sdcc/src/pic14/genarith.c:612:genPlus *{*
                      00395 ;;      613
                      00396 ;;      aopForRemat 392
                      00397 ;;      418: rname _SWs_Info, val 0, const = 0
                      00398 ;;      694 register type nRegs=2
                      00399 ;;      694 register type nRegs=2
                      00400 ;;      833: aopGet AOP_PCODE type PO_IMMEDIATE
                      00401 ;;      _SWs_Info
                      00402 ;;      line = 618 result AOP_REG=r0x1054, size=2, left AOP_PCODE=_SWs_Info, size=2, right AOP_REG=r0x10
                            54, size=2
                      00403 ;;; /home/sdcc-builder/build/sdcc-build/orig/sdcc/src/pic14/genarith.c:142:genPlusIncr *{*
                      00404 ;; ***  genPlusIncr  144
                      00405 ;;      result AOP_REG, left AOP_PCODE, right AOP_REG
                      00406 ;; ***  genPlus  717
                      00407 ;;      833: aopGet AOP_PCODE type PO_IMMEDIATE
                      00408 ;;      _SWs_Info
gpasm-1.4.0 #1106 (Oct  6 2014) obj\Debug\SW.   3-31-2020  02:49:32         PAGE  9


LOC    OBJECT CODE    LINE  SOURCE TEXT
  VALUE

                      00409 ;; >>> /home/sdcc-builder/build/sdcc-build/orig/sdcc/src/pic14/genarith.c:726:genPlus
                      00410 ;;      1109 rIdx = r0x1054 
002C   08??           00411         MOVF    r0x100C,W
                      00412 ;; >>> /home/sdcc-builder/build/sdcc-build/orig/sdcc/src/pic14/genarith.c:735:genPlus
002D   3E??           00413         ADDLW   (_SWs_Info + 0)
                      00414 ;; >>> /home/sdcc-builder/build/sdcc-build/orig/sdcc/src/pic14/genarith.c:736:genPlus
                      00415 ;;      1109 rIdx = r0x1054 
002E   00??           00416         MOVWF   r0x100C
                      00417 ;; >>> /home/sdcc-builder/build/sdcc-build/orig/sdcc/src/pic14/genarith.c:749:genPlus
                      00418 ;;      1109 rIdx = r0x1055 
002F   08??           00419         MOVF    r0x100D,W
                      00420 ;; >>> /home/sdcc-builder/build/sdcc-build/orig/sdcc/src/pic14/genarith.c:750:genPlus
0030   1803           00421         BTFSC   STATUS,0
                      00422 ;; >>> /home/sdcc-builder/build/sdcc-build/orig/sdcc/src/pic14/genarith.c:751:genPlus
                      00423 ;;      1109 rIdx = r0x1055 
0031   0F??           00424         INCFSZ  r0x100D,W
                      00425 ;; >>> /home/sdcc-builder/build/sdcc-build/orig/sdcc/src/pic14/genarith.c:752:genPlus
0032   3E??           00426         ADDLW   high (_SWs_Info + 0)
                      00427 ;; >>> /home/sdcc-builder/build/sdcc-build/orig/sdcc/src/pic14/genarith.c:753:genPlus
                      00428 ;;      1109 rIdx = r0x1055 
0033   00??           00429         MOVWF   r0x100D
                      00430 ;;; /home/sdcc-builder/build/sdcc-build/orig/sdcc/src/pic14/gen.c:2316:resultRemat *{*
                      00431 ;; ***  genPlus  611
                      00432 ;;; /home/sdcc-builder/build/sdcc-build/orig/sdcc/src/pic14/genarith.c:612:genPlus *{*
                      00433 ;;      694 register type nRegs=2
                      00434 ;;      694 register type nRegs=2
                      00435 ;;      line = 618 result AOP_REG=r0x1054, size=2, left AOP_REG=r0x1054, size=2, right AOP_LIT=0x01, siz
                            e=1
                      00436 ;;; /home/sdcc-builder/build/sdcc-build/orig/sdcc/src/pic14/genarith.c:142:genPlusIncr *{*
                      00437 ;; ***  genPlusIncr  144
                      00438 ;;      result AOP_REG, left AOP_REG, right AOP_LIT
                      00439 ;;      genPlusIncr  156
                      00440 ;; >>> /home/sdcc-builder/build/sdcc-build/orig/sdcc/src/pic14/genarith.c:168:genPlusIncr
                      00441 ;;      1109 rIdx = r0x1054 
0034   0A??           00442         INCF    r0x100C,F
                      00443 ;; >>> /home/sdcc-builder/build/sdcc-build/orig/sdcc/src/pic14/genarith.c:172:genPlusIncr
0035   1903           00444         BTFSC   STATUS,2
                      00445 ;; >>> /home/sdcc-builder/build/sdcc-build/orig/sdcc/src/pic14/genarith.c:173:genPlusIncr
                      00446 ;;      1109 rIdx = r0x1055 
0036   0A??           00447         INCF    r0x100D,F
                      00448 ;;; /home/sdcc-builder/build/sdcc-build/orig/sdcc/src/pic14/gen.c:2316:resultRemat *{*
                      00449 ;;; /home/sdcc-builder/build/sdcc-build/orig/sdcc/src/pic14/gen.c:6162:genPointerGet *{*
                      00450 ;; ***  genPointerGet  6163
                      00451 ;;; /home/sdcc-builder/build/sdcc-build/orig/sdcc/src/pic14/gen.c:5944:genNearPointerGet *{*
                      00452 ;; ***  genNearPointerGet  5945
                      00453 ;;      694 register type nRegs=2
                      00454 ;; ***  genNearPointerGet  5961
                      00455 ;;      694 register type nRegs=1
                      00456 ;;; /home/sdcc-builder/build/sdcc-build/orig/sdcc/src/pic14/gen.c:1343:mov2w_op *{*
                      00457 ;; ***  mov2w  1381  offset=0
                      00458 ;; >>> /home/sdcc-builder/build/sdcc-build/orig/sdcc/src/pic14/gen.c:1386:mov2w
                      00459 ;;      1109 rIdx = r0x1054 
0037   08??           00460         MOVF    r0x100C,W
gpasm-1.4.0 #1106 (Oct  6 2014) obj\Debug\SW.   3-31-2020  02:49:32         PAGE 10


LOC    OBJECT CODE    LINE  SOURCE TEXT
  VALUE

                      00461 ;; >>> /home/sdcc-builder/build/sdcc-build/orig/sdcc/src/pic14/gen.c:5602:setup_fsr
0038   1283 1303      00462         BANKSEL FSR
003A   0084           00463         MOVWF   FSR
                      00464 ;;; /home/sdcc-builder/build/sdcc-build/orig/sdcc/src/pic14/gen.c:5553:SetIrp *{*
                      00465 ;; >>> /home/sdcc-builder/build/sdcc-build/orig/sdcc/src/pic14/gen.c:5580:SetIrp
003B   1383           00466         BCF     STATUS,7
                      00467 ;; >>> /home/sdcc-builder/build/sdcc-build/orig/sdcc/src/pic14/gen.c:5583:SetIrp
003C   ???? ????      00468         BANKSEL r0x100D
003E   18??           00469         BTFSC   r0x100D,0
                      00470 ;; >>> /home/sdcc-builder/build/sdcc-build/orig/sdcc/src/pic14/gen.c:5584:SetIrp
003F   1783           00471         BSF     STATUS,7
                      00472 ;; ***  genNearPointerGet  5988
                      00473 ;; >>> /home/sdcc-builder/build/sdcc-build/orig/sdcc/src/pic14/gen.c:5995:genNearPointerGet
0040   1283 1303      00474         BANKSEL INDF
0042   0800           00475         MOVF    INDF,W
                      00476 ;; >>> /home/sdcc-builder/build/sdcc-build/orig/sdcc/src/pic14/gen.c:6002:genNearPointerGet
                      00477 ;;      1109 rIdx = r0x1058 
0043   ???? ????      00478         BANKSEL r0x1010
0045   00??           00479         MOVWF   r0x1010
                      00480 ;;; /home/sdcc-builder/build/sdcc-build/orig/sdcc/src/pic14/gen.c:2316:resultRemat *{*
                      00481 ;;; /home/sdcc-builder/build/sdcc-build/orig/sdcc/src/pic14/gen.c:6686:genPointerSet *{*
                      00482 ;; ***  genPointerSet  6687
                      00483 ;;; /home/sdcc-builder/build/sdcc-build/orig/sdcc/src/pic14/gen.c:6505:genNearPointerSet *{*
                      00484 ;; ***  genNearPointerSet  6506
                      00485 ;;      694 register type nRegs=2
                      00486 ;; ***  genNearPointerSet  6521
                      00487 ;;      694 register type nRegs=1
                      00488 ;;      line = 6523 result AOP_REG=r0x1056, size=2, left -=-, size=0, right AOP_REG=r0x1058, size=1
                      00489 ;;; /home/sdcc-builder/build/sdcc-build/orig/sdcc/src/pic14/gen.c:1343:mov2w_op *{*
                      00490 ;; ***  mov2w  1381  offset=0
                      00491 ;; >>> /home/sdcc-builder/build/sdcc-build/orig/sdcc/src/pic14/gen.c:1386:mov2w
                      00492 ;;      1109 rIdx = r0x1056 
0046   08??           00493         MOVF    r0x100E,W
                      00494 ;; >>> /home/sdcc-builder/build/sdcc-build/orig/sdcc/src/pic14/gen.c:5602:setup_fsr
0047   1283 1303      00495         BANKSEL FSR
0049   0084           00496         MOVWF   FSR
                      00497 ;;; /home/sdcc-builder/build/sdcc-build/orig/sdcc/src/pic14/gen.c:5553:SetIrp *{*
                      00498 ;; >>> /home/sdcc-builder/build/sdcc-build/orig/sdcc/src/pic14/gen.c:5580:SetIrp
004A   1383           00499         BCF     STATUS,7
                      00500 ;; >>> /home/sdcc-builder/build/sdcc-build/orig/sdcc/src/pic14/gen.c:5583:SetIrp
004B   ???? ????      00501         BANKSEL r0x100F
004D   18??           00502         BTFSC   r0x100F,0
                      00503 ;; >>> /home/sdcc-builder/build/sdcc-build/orig/sdcc/src/pic14/gen.c:5584:SetIrp
004E   1783           00504         BSF     STATUS,7
                      00505 ;; ***  genNearPointerSet  6548
                      00506 ;; >>> /home/sdcc-builder/build/sdcc-build/orig/sdcc/src/pic14/gen.c:6564:genNearPointerSet
                      00507 ;;      1109 rIdx = r0x1058 
004F   08??           00508         MOVF    r0x1010,W
                      00509 ;; >>> /home/sdcc-builder/build/sdcc-build/orig/sdcc/src/pic14/gen.c:6569:genNearPointerSet
0050   1283 1303      00510         BANKSEL INDF
0052   0080           00511         MOVWF   INDF
                      00512 ;; ***  genNearPointerSet  6577
                      00513 ;; ***  genNearPointerSet  6603
gpasm-1.4.0 #1106 (Oct  6 2014) obj\Debug\SW.   3-31-2020  02:49:32         PAGE 11


LOC    OBJECT CODE    LINE  SOURCE TEXT
  VALUE

                      00514 ;;; /home/sdcc-builder/build/sdcc-build/orig/sdcc/src/pic14/gen.c:2316:resultRemat *{*
                      00515 ;;; /home/sdcc-builder/build/sdcc-build/orig/sdcc/src/pic14/gen.c:6759:genIfx *{*
                      00516 ;; ***  genIfx  6760
                      00517 ;;      694 register type nRegs=1
                      00518 ;; ***  pic14_toBoolean  1515
                      00519 ;; >>> /home/sdcc-builder/build/sdcc-build/orig/sdcc/src/pic14/gen.c:1522:pic14_toBoolean
                      00520         .line   91; "SW.c"      if (index == SW_PLUS)
0053   ???? ????      00521         BANKSEL r0x100B
0055   08??           00522         MOVF    r0x100B,W
0056   1D03           00523         BTFSS   STATUS,2
                      00524 ;; >>> /home/sdcc-builder/build/sdcc-build/orig/sdcc/src/pic14/gen.c:6809:genIfx
                      00525 ;; ***  popGetLabel  key=9, label offset 14
0057   2???           00526         GOTO    _00123_DS_
                      00527 ;;; /home/sdcc-builder/build/sdcc-build/orig/sdcc/src/pic14/gen.c:2316:resultRemat *{*
                      00528 ;;; /home/sdcc-builder/build/sdcc-build/orig/sdcc/src/pic14/gen.c:3919:genAnd *{*
                      00529 ;; ***  genAnd  3920
                      00530 ;; ***  aopForSym 315
                      00531 ;;      327 sym->rname = _PORTB, size = 1
                      00532 ;;      694 register type nRegs=1
                      00533 ;;      line = 3955 result AOP_REG=r0x1056, size=1, left AOP_DIR=_PORTB, size=1, right AOP_LIT=0x01, siz
                            e=1
                      00534 ;; >>> /home/sdcc-builder/build/sdcc-build/orig/sdcc/src/pic14/gen.c:4190:genAnd
                      00535         .line   93; "SW.c"      SWs_Info[index].sw_samples[1] = GPIO_ReadPortPin(SW_PLUS_PORT_DR, SW_PLU
                            S_PIN);
0058   3001           00536         MOVLW   0x01
                      00537 ;; >>> /home/sdcc-builder/build/sdcc-build/orig/sdcc/src/pic14/gen.c:4191:genAnd
                      00538 ;;      1009
                      00539 ;;      1024  _PORTB   offset=0 - had to alloc by reg name
0059   ???? ????      00540         BANKSEL _PORTB
005B   05??           00541         ANDWF   _PORTB,W
                      00542 ;; >>> /home/sdcc-builder/build/sdcc-build/orig/sdcc/src/pic14/gen.c:4192:genAnd
                      00543 ;;      1109 rIdx = r0x1056 
005C   ???? ????      00544         BANKSEL r0x100E
005E   00??           00545         MOVWF   r0x100E
005F   00??           00546         MOVWF   r0x100F
                      00547 ;; ***  addSign  861
                      00548 ;;; /home/sdcc-builder/build/sdcc-build/orig/sdcc/src/pic14/genarith.c:862:addSign *{*
                      00549 ;;; /home/sdcc-builder/build/sdcc-build/orig/sdcc/src/pic14/gen.c:2316:resultRemat *{*
                      00550 ;;; /home/sdcc-builder/build/sdcc-build/orig/sdcc/src/pic14/gen.c:6686:genPointerSet *{*
                      00551 ;; ***  genPointerSet  6687
                      00552 ;;; /home/sdcc-builder/build/sdcc-build/orig/sdcc/src/pic14/gen.c:6505:genNearPointerSet *{*
                      00553 ;; ***  genNearPointerSet  6506
                      00554 ;;      694 register type nRegs=2
                      00555 ;; ***  genNearPointerSet  6521
                      00556 ;;      line = 6523 result AOP_REG=r0x1054, size=2, left -=-, size=0, right AOP_REG=r0x1057, size=1
                      00557 ;;; /home/sdcc-builder/build/sdcc-build/orig/sdcc/src/pic14/gen.c:1343:mov2w_op *{*
                      00558 ;; ***  mov2w  1381  offset=0
                      00559 ;; >>> /home/sdcc-builder/build/sdcc-build/orig/sdcc/src/pic14/gen.c:1386:mov2w
                      00560 ;;      1109 rIdx = r0x1054 
0060   08??           00561         MOVF    r0x100C,W
                      00562 ;; >>> /home/sdcc-builder/build/sdcc-build/orig/sdcc/src/pic14/gen.c:5602:setup_fsr
0061   1283 1303      00563         BANKSEL FSR
0063   0084           00564         MOVWF   FSR
gpasm-1.4.0 #1106 (Oct  6 2014) obj\Debug\SW.   3-31-2020  02:49:32         PAGE 12


LOC    OBJECT CODE    LINE  SOURCE TEXT
  VALUE

                      00565 ;;; /home/sdcc-builder/build/sdcc-build/orig/sdcc/src/pic14/gen.c:5553:SetIrp *{*
                      00566 ;; >>> /home/sdcc-builder/build/sdcc-build/orig/sdcc/src/pic14/gen.c:5580:SetIrp
0064   1383           00567         BCF     STATUS,7
                      00568 ;; >>> /home/sdcc-builder/build/sdcc-build/orig/sdcc/src/pic14/gen.c:5583:SetIrp
0065   ???? ????      00569         BANKSEL r0x100D
0067   18??           00570         BTFSC   r0x100D,0
                      00571 ;; >>> /home/sdcc-builder/build/sdcc-build/orig/sdcc/src/pic14/gen.c:5584:SetIrp
0068   1783           00572         BSF     STATUS,7
                      00573 ;; ***  genNearPointerSet  6548
                      00574 ;; >>> /home/sdcc-builder/build/sdcc-build/orig/sdcc/src/pic14/gen.c:6564:genNearPointerSet
                      00575 ;;      1109 rIdx = r0x1057 
0069   08??           00576         MOVF    r0x100F,W
                      00577 ;; >>> /home/sdcc-builder/build/sdcc-build/orig/sdcc/src/pic14/gen.c:6569:genNearPointerSet
006A   1283 1303      00578         BANKSEL INDF
006C   0080           00579         MOVWF   INDF
                      00580 ;; ***  genNearPointerSet  6577
                      00581 ;; ***  genNearPointerSet  6603
                      00582 ;;; /home/sdcc-builder/build/sdcc-build/orig/sdcc/src/pic14/gen.c:2316:resultRemat *{*
                      00583 ;;; /home/sdcc-builder/build/sdcc-build/orig/sdcc/src/pic14/gen.c:2778:genGoto *{*
                      00584 ;; >>> /home/sdcc-builder/build/sdcc-build/orig/sdcc/src/pic14/gen.c:2780:genGoto
                      00585 ;; ***  popGetLabel  key=10, label offset 14
006D   2???           00586         GOTO    _00124_DS_
                      00587 ;;; /home/sdcc-builder/build/sdcc-build/orig/sdcc/src/pic14/gen.c:2316:resultRemat *{*
                      00588 ;;; /home/sdcc-builder/build/sdcc-build/orig/sdcc/src/pic14/gen.c:2760:genLabel *{*
                      00589 ;; ***  genLabel  2763
                      00590 ;;; /home/sdcc-builder/build/sdcc-build/orig/sdcc/src/pic14/gen.c:2316:resultRemat *{*
                      00591 ;;; /home/sdcc-builder/build/sdcc-build/orig/sdcc/src/pic14/gen.c:3619:genCmpEq *{*
                      00592 ;; ***  genCmpEq  3620
                      00593 ;; ifx is non-null
                      00594 ;;      694 register type nRegs=1
                      00595 ;;      line = 3631 result AOP_CRY=0x00, size=0, left AOP_REG=r0x1053, size=1, right AOP_LIT=0x01, size=
                            1
                      00596 ;; ***  mov2w  1381  offset=0
                      00597 ;; >>> /home/sdcc-builder/build/sdcc-build/orig/sdcc/src/pic14/gen.c:1386:mov2w
                      00598 ;;      1109 rIdx = r0x1053 
006E                  00599 _00123_DS_
                      00600         .line   94; "SW.c"      } else if (index == SW_MINUS)
006E   ???? ????      00601         BANKSEL r0x100B
0070   08??           00602         MOVF    r0x100B,W
                      00603 ;; >>> /home/sdcc-builder/build/sdcc-build/orig/sdcc/src/pic14/gen.c:3685:genCmpEq
0071   3A01           00604         XORLW   0x01
                      00605 ;; >>> /home/sdcc-builder/build/sdcc-build/orig/sdcc/src/pic14/gen.c:3687:genCmpEq
0072   1D03           00606         BTFSS   STATUS,2
                      00607 ;; >>> /home/sdcc-builder/build/sdcc-build/orig/sdcc/src/pic14/gen.c:3690:genCmpEq
                      00608 ;; ***  popGetLabel  key=6, label offset 14
0073   2???           00609         GOTO    _00120_DS_
                      00610 ;;; /home/sdcc-builder/build/sdcc-build/orig/sdcc/src/pic14/gen.c:2316:resultRemat *{*
                      00611 ;;; /home/sdcc-builder/build/sdcc-build/orig/sdcc/src/pic14/gen.c:2316:resultRemat *{*
                      00612 ;;; /home/sdcc-builder/build/sdcc-build/orig/sdcc/src/pic14/gen.c:3919:genAnd *{*
                      00613 ;; ***  genAnd  3920
                      00614 ;; ***  aopForSym 315
                      00615 ;;      327 sym->rname = _PORTB, size = 1
                      00616 ;;      694 register type nRegs=1
gpasm-1.4.0 #1106 (Oct  6 2014) obj\Debug\SW.   3-31-2020  02:49:32         PAGE 13


LOC    OBJECT CODE    LINE  SOURCE TEXT
  VALUE

                      00617 ;;      line = 3955 result AOP_REG=r0x1056, size=1, left AOP_DIR=_PORTB, size=1, right AOP_LIT=0x02, siz
                            e=1
                      00618 ;; >>> /home/sdcc-builder/build/sdcc-build/orig/sdcc/src/pic14/gen.c:4190:genAnd
                      00619         .line   96; "SW.c"      SWs_Info[index].sw_samples[1] = GPIO_ReadPortPin(SW_MINUS_PORT_DR, SW_MI
                            NUS_PIN);
0074   3002           00620         MOVLW   0x02
                      00621 ;; >>> /home/sdcc-builder/build/sdcc-build/orig/sdcc/src/pic14/gen.c:4191:genAnd
                      00622 ;;      1009
                      00623 ;;      1028  _PORTB   offset=0
0075   ???? ????      00624         BANKSEL _PORTB
0077   05??           00625         ANDWF   _PORTB,W
                      00626 ;; >>> /home/sdcc-builder/build/sdcc-build/orig/sdcc/src/pic14/gen.c:4192:genAnd
                      00627 ;;      1109 rIdx = r0x1056 
0078   ???? ????      00628         BANKSEL r0x100E
007A   00??           00629         MOVWF   r0x100E
                      00630 ;;; /home/sdcc-builder/build/sdcc-build/orig/sdcc/src/pic14/gen.c:2316:resultRemat *{*
                      00631 ;;; /home/sdcc-builder/build/sdcc-build/orig/sdcc/src/pic14/gen.c:5418:genGenericShift *{*
                      00632 ;; ***  genGenericShift  5421
                      00633 ;;      694 register type nRegs=1
                      00634 ;;      694 register type nRegs=1
                      00635 ;;shiftRight_Left2ResultLit:5273: shCount=1, size=1, sign=0, same=0, offr=0
                      00636 ;; >>> /home/sdcc-builder/build/sdcc-build/orig/sdcc/src/pic14/gen.c:5283:shiftRight_Left2ResultLit
007B   1003           00637         BCF     STATUS,0
                      00638 ;; >>> /home/sdcc-builder/build/sdcc-build/orig/sdcc/src/pic14/gen.c:5297:shiftRight_Left2ResultLit
                      00639 ;;      1109 rIdx = r0x1056 
007C   0C??           00640         RRF     r0x100E,W
                      00641 ;; >>> /home/sdcc-builder/build/sdcc-build/orig/sdcc/src/pic14/gen.c:5298:shiftRight_Left2ResultLit
                      00642 ;;      1109 rIdx = r0x1057 
007D   00??           00643         MOVWF   r0x100F
                      00644 ;; ***  addSign  861
                      00645 ;;; /home/sdcc-builder/build/sdcc-build/orig/sdcc/src/pic14/genarith.c:862:addSign *{*
                      00646 ;;; /home/sdcc-builder/build/sdcc-build/orig/sdcc/src/pic14/gen.c:2316:resultRemat *{*
                      00647 ;;; /home/sdcc-builder/build/sdcc-build/orig/sdcc/src/pic14/gen.c:6686:genPointerSet *{*
                      00648 ;; ***  genPointerSet  6687
                      00649 ;;; /home/sdcc-builder/build/sdcc-build/orig/sdcc/src/pic14/gen.c:6505:genNearPointerSet *{*
                      00650 ;; ***  genNearPointerSet  6506
                      00651 ;;      694 register type nRegs=2
                      00652 ;; ***  genNearPointerSet  6521
                      00653 ;;      line = 6523 result AOP_REG=r0x1054, size=2, left -=-, size=0, right AOP_REG=r0x1057, size=1
                      00654 ;;; /home/sdcc-builder/build/sdcc-build/orig/sdcc/src/pic14/gen.c:1343:mov2w_op *{*
                      00655 ;; ***  mov2w  1381  offset=0
                      00656 ;; >>> /home/sdcc-builder/build/sdcc-build/orig/sdcc/src/pic14/gen.c:1386:mov2w
                      00657 ;;      1109 rIdx = r0x1054 
007E   08??           00658         MOVF    r0x100C,W
                      00659 ;; >>> /home/sdcc-builder/build/sdcc-build/orig/sdcc/src/pic14/gen.c:5602:setup_fsr
007F   1283 1303      00660         BANKSEL FSR
0081   0084           00661         MOVWF   FSR
                      00662 ;;; /home/sdcc-builder/build/sdcc-build/orig/sdcc/src/pic14/gen.c:5553:SetIrp *{*
                      00663 ;; >>> /home/sdcc-builder/build/sdcc-build/orig/sdcc/src/pic14/gen.c:5580:SetIrp
0082   1383           00664         BCF     STATUS,7
                      00665 ;; >>> /home/sdcc-builder/build/sdcc-build/orig/sdcc/src/pic14/gen.c:5583:SetIrp
0083   ???? ????      00666         BANKSEL r0x100D
0085   18??           00667         BTFSC   r0x100D,0
gpasm-1.4.0 #1106 (Oct  6 2014) obj\Debug\SW.   3-31-2020  02:49:32         PAGE 14


LOC    OBJECT CODE    LINE  SOURCE TEXT
  VALUE

                      00668 ;; >>> /home/sdcc-builder/build/sdcc-build/orig/sdcc/src/pic14/gen.c:5584:SetIrp
0086   1783           00669         BSF     STATUS,7
                      00670 ;; ***  genNearPointerSet  6548
                      00671 ;; >>> /home/sdcc-builder/build/sdcc-build/orig/sdcc/src/pic14/gen.c:6564:genNearPointerSet
                      00672 ;;      1109 rIdx = r0x1057 
0087   08??           00673         MOVF    r0x100F,W
                      00674 ;; >>> /home/sdcc-builder/build/sdcc-build/orig/sdcc/src/pic14/gen.c:6569:genNearPointerSet
0088   1283 1303      00675         BANKSEL INDF
008A   0080           00676         MOVWF   INDF
                      00677 ;; ***  genNearPointerSet  6577
                      00678 ;; ***  genNearPointerSet  6603
                      00679 ;;; /home/sdcc-builder/build/sdcc-build/orig/sdcc/src/pic14/gen.c:2316:resultRemat *{*
                      00680 ;;; /home/sdcc-builder/build/sdcc-build/orig/sdcc/src/pic14/gen.c:2778:genGoto *{*
                      00681 ;; >>> /home/sdcc-builder/build/sdcc-build/orig/sdcc/src/pic14/gen.c:2780:genGoto
                      00682 ;; ***  popGetLabel  key=10, label offset 14
008B   2???           00683         GOTO    _00124_DS_
                      00684 ;;; /home/sdcc-builder/build/sdcc-build/orig/sdcc/src/pic14/gen.c:2316:resultRemat *{*
                      00685 ;;; /home/sdcc-builder/build/sdcc-build/orig/sdcc/src/pic14/gen.c:2760:genLabel *{*
                      00686 ;; ***  genLabel  2763
                      00687 ;;; /home/sdcc-builder/build/sdcc-build/orig/sdcc/src/pic14/gen.c:2316:resultRemat *{*
                      00688 ;;; /home/sdcc-builder/build/sdcc-build/orig/sdcc/src/pic14/gen.c:3619:genCmpEq *{*
                      00689 ;; ***  genCmpEq  3620
                      00690 ;; ifx is non-null
                      00691 ;;      694 register type nRegs=1
                      00692 ;;      line = 3631 result AOP_CRY=0x00, size=0, left AOP_REG=r0x1053, size=1, right AOP_LIT=0x02, size=
                            1
                      00693 ;; ***  mov2w  1381  offset=0
                      00694 ;; >>> /home/sdcc-builder/build/sdcc-build/orig/sdcc/src/pic14/gen.c:1386:mov2w
                      00695 ;;      1109 rIdx = r0x1053 
008C                  00696 _00120_DS_
                      00697         .line   97; "SW.c"      } else if (index == SW_D)
008C   ???? ????      00698         BANKSEL r0x100B
008E   08??           00699         MOVF    r0x100B,W
                      00700 ;; >>> /home/sdcc-builder/build/sdcc-build/orig/sdcc/src/pic14/gen.c:3685:genCmpEq
008F   3A02           00701         XORLW   0x02
                      00702 ;; >>> /home/sdcc-builder/build/sdcc-build/orig/sdcc/src/pic14/gen.c:3687:genCmpEq
0090   1D03           00703         BTFSS   STATUS,2
                      00704 ;; >>> /home/sdcc-builder/build/sdcc-build/orig/sdcc/src/pic14/gen.c:3690:genCmpEq
                      00705 ;; ***  popGetLabel  key=10, label offset 14
0091   2???           00706         GOTO    _00124_DS_
                      00707 ;;; /home/sdcc-builder/build/sdcc-build/orig/sdcc/src/pic14/gen.c:2316:resultRemat *{*
                      00708 ;;; /home/sdcc-builder/build/sdcc-build/orig/sdcc/src/pic14/gen.c:2316:resultRemat *{*
                      00709 ;;; /home/sdcc-builder/build/sdcc-build/orig/sdcc/src/pic14/gen.c:3919:genAnd *{*
                      00710 ;; ***  genAnd  3920
                      00711 ;; ***  aopForSym 315
                      00712 ;;      327 sym->rname = _PORTB, size = 1
                      00713 ;;      694 register type nRegs=1
                      00714 ;;      line = 3955 result AOP_REG=r0x1056, size=1, left AOP_DIR=_PORTB, size=1, right AOP_LIT=0x04, siz
                            e=1
                      00715 ;; >>> /home/sdcc-builder/build/sdcc-build/orig/sdcc/src/pic14/gen.c:4190:genAnd
                      00716         .line   99; "SW.c"      SWs_Info[index].sw_samples[1] = GPIO_ReadPortPin(SW_D_PORT_DR, SW_D_PIN)
                            ;
0092   3004           00717         MOVLW   0x04
gpasm-1.4.0 #1106 (Oct  6 2014) obj\Debug\SW.   3-31-2020  02:49:32         PAGE 15


LOC    OBJECT CODE    LINE  SOURCE TEXT
  VALUE

                      00718 ;; >>> /home/sdcc-builder/build/sdcc-build/orig/sdcc/src/pic14/gen.c:4191:genAnd
                      00719 ;;      1009
                      00720 ;;      1028  _PORTB   offset=0
0093   ???? ????      00721         BANKSEL _PORTB
0095   05??           00722         ANDWF   _PORTB,W
                      00723 ;; >>> /home/sdcc-builder/build/sdcc-build/orig/sdcc/src/pic14/gen.c:4192:genAnd
                      00724 ;;      1109 rIdx = r0x1056 
0096   ???? ????      00725         BANKSEL r0x100E
0098   00??           00726         MOVWF   r0x100E
                      00727 ;;; /home/sdcc-builder/build/sdcc-build/orig/sdcc/src/pic14/gen.c:2316:resultRemat *{*
                      00728 ;;; /home/sdcc-builder/build/sdcc-build/orig/sdcc/src/pic14/gen.c:5418:genGenericShift *{*
                      00729 ;; ***  genGenericShift  5421
                      00730 ;;      694 register type nRegs=1
                      00731 ;;      694 register type nRegs=1
                      00732 ;;shiftRight_Left2ResultLit:5273: shCount=1, size=1, sign=0, same=0, offr=0
                      00733 ;; >>> /home/sdcc-builder/build/sdcc-build/orig/sdcc/src/pic14/gen.c:5283:shiftRight_Left2ResultLit
0099   1003           00734         BCF     STATUS,0
                      00735 ;; >>> /home/sdcc-builder/build/sdcc-build/orig/sdcc/src/pic14/gen.c:5297:shiftRight_Left2ResultLit
                      00736 ;;      1109 rIdx = r0x1056 
009A   0C??           00737         RRF     r0x100E,W
                      00738 ;; >>> /home/sdcc-builder/build/sdcc-build/orig/sdcc/src/pic14/gen.c:5298:shiftRight_Left2ResultLit
                      00739 ;;      1109 rIdx = r0x1057 
009B   00??           00740         MOVWF   r0x100F
                      00741 ;; ***  addSign  861
                      00742 ;;; /home/sdcc-builder/build/sdcc-build/orig/sdcc/src/pic14/genarith.c:862:addSign *{*
                      00743 ;;shiftRight_Left2ResultLit:5273: shCount=1, size=1, sign=0, same=1, offr=0
                      00744 ;; >>> /home/sdcc-builder/build/sdcc-build/orig/sdcc/src/pic14/gen.c:5283:shiftRight_Left2ResultLit
009C   1003           00745         BCF     STATUS,0
                      00746 ;; >>> /home/sdcc-builder/build/sdcc-build/orig/sdcc/src/pic14/gen.c:5293:shiftRight_Left2ResultLit
                      00747 ;;      1109 rIdx = r0x1057 
009D   0C??           00748         RRF     r0x100F,F
                      00749 ;; ***  addSign  861
                      00750 ;;; /home/sdcc-builder/build/sdcc-build/orig/sdcc/src/pic14/genarith.c:862:addSign *{*
                      00751 ;;; /home/sdcc-builder/build/sdcc-build/orig/sdcc/src/pic14/gen.c:2316:resultRemat *{*
                      00752 ;;; /home/sdcc-builder/build/sdcc-build/orig/sdcc/src/pic14/gen.c:6686:genPointerSet *{*
                      00753 ;; ***  genPointerSet  6687
                      00754 ;;; /home/sdcc-builder/build/sdcc-build/orig/sdcc/src/pic14/gen.c:6505:genNearPointerSet *{*
                      00755 ;; ***  genNearPointerSet  6506
                      00756 ;;      694 register type nRegs=2
                      00757 ;; ***  genNearPointerSet  6521
                      00758 ;;      line = 6523 result AOP_REG=r0x1054, size=2, left -=-, size=0, right AOP_REG=r0x1057, size=1
                      00759 ;;; /home/sdcc-builder/build/sdcc-build/orig/sdcc/src/pic14/gen.c:1343:mov2w_op *{*
                      00760 ;; ***  mov2w  1381  offset=0
                      00761 ;; >>> /home/sdcc-builder/build/sdcc-build/orig/sdcc/src/pic14/gen.c:1386:mov2w
                      00762 ;;      1109 rIdx = r0x1054 
009E   08??           00763         MOVF    r0x100C,W
                      00764 ;; >>> /home/sdcc-builder/build/sdcc-build/orig/sdcc/src/pic14/gen.c:5602:setup_fsr
009F   1283 1303      00765         BANKSEL FSR
00A1   0084           00766         MOVWF   FSR
                      00767 ;;; /home/sdcc-builder/build/sdcc-build/orig/sdcc/src/pic14/gen.c:5553:SetIrp *{*
                      00768 ;; >>> /home/sdcc-builder/build/sdcc-build/orig/sdcc/src/pic14/gen.c:5580:SetIrp
00A2   1383           00769         BCF     STATUS,7
                      00770 ;; >>> /home/sdcc-builder/build/sdcc-build/orig/sdcc/src/pic14/gen.c:5583:SetIrp
gpasm-1.4.0 #1106 (Oct  6 2014) obj\Debug\SW.   3-31-2020  02:49:32         PAGE 16


LOC    OBJECT CODE    LINE  SOURCE TEXT
  VALUE

00A3   ???? ????      00771         BANKSEL r0x100D
00A5   18??           00772         BTFSC   r0x100D,0
                      00773 ;; >>> /home/sdcc-builder/build/sdcc-build/orig/sdcc/src/pic14/gen.c:5584:SetIrp
00A6   1783           00774         BSF     STATUS,7
                      00775 ;; ***  genNearPointerSet  6548
                      00776 ;; >>> /home/sdcc-builder/build/sdcc-build/orig/sdcc/src/pic14/gen.c:6564:genNearPointerSet
                      00777 ;;      1109 rIdx = r0x1057 
00A7   08??           00778         MOVF    r0x100F,W
                      00779 ;; >>> /home/sdcc-builder/build/sdcc-build/orig/sdcc/src/pic14/gen.c:6569:genNearPointerSet
00A8   1283 1303      00780         BANKSEL INDF
00AA   0080           00781         MOVWF   INDF
                      00782 ;; ***  genNearPointerSet  6577
                      00783 ;; ***  genNearPointerSet  6603
                      00784 ;;; /home/sdcc-builder/build/sdcc-build/orig/sdcc/src/pic14/gen.c:2316:resultRemat *{*
                      00785 ;;; /home/sdcc-builder/build/sdcc-build/orig/sdcc/src/pic14/gen.c:2760:genLabel *{*
                      00786 ;; ***  genLabel  2763
                      00787 ;;; /home/sdcc-builder/build/sdcc-build/orig/sdcc/src/pic14/gen.c:2316:resultRemat *{*
                      00788 ;;; /home/sdcc-builder/build/sdcc-build/orig/sdcc/src/pic14/gen.c:2878:genMult *{*
                      00789 ;; ***  genMult  2880
                      00790 ;;      694 register type nRegs=1
                      00791 ;;      694 register type nRegs=2
                      00792 ;;      line = 2886 result AOP_REG=r0x1054, size=2, left AOP_REG=r0x1053, size=1, right AOP_LIT=0x03, si
                            ze=1
                      00793 ;;; /home/sdcc-builder/build/sdcc-build/orig/sdcc/src/pic14/gen.c:2816:genMultOneByte *{*
                      00794 ;; ***  genMultOneByte  2818
                      00795 ;;      line = 2819 result AOP_REG=r0x1054, size=2, left AOP_REG=r0x1053, size=1, right AOP_LIT=0x03, si
                            ze=1
                      00796 ;;      line = 2820, signs: result AOP_REG=u, left AOP_REG=u, right AOP_LIT=u
                      00797 ;; ***  mov2w  1381  offset=0
                      00798 ;; >>> /home/sdcc-builder/build/sdcc-build/orig/sdcc/src/pic14/gen.c:1384:mov2w
00AB                  00799 _00124_DS_
                      00800         .line   106; "SW.c"     switch(SWs_Info[index].sw_state)
00AB   3003           00801         MOVLW   0x03
                      00802 ;; >>> /home/sdcc-builder/build/sdcc-build/orig/sdcc/src/pic14/gen.c:2840:genMultOneByte
                      00803 ;; ***  popRegFromIdx,1042  , rIdx=0x7f
00AC   00??           00804         MOVWF   STK00
                      00805 ;; ***  mov2w  1381  offset=0
                      00806 ;; >>> /home/sdcc-builder/build/sdcc-build/orig/sdcc/src/pic14/gen.c:1386:mov2w
                      00807 ;;      1109 rIdx = r0x1053 
00AD   ???? ????      00808         BANKSEL r0x100B
00AF   08??           00809         MOVF    r0x100B,W
                      00810 ;; >>> /home/sdcc-builder/build/sdcc-build/orig/sdcc/src/pic14/gen.c:1433:call_libraryfunc
00B0   ???? ????      00811         PAGESEL __mulchar
                      00812 ;; >>> /home/sdcc-builder/build/sdcc-build/orig/sdcc/src/pic14/gen.c:1435:call_libraryfunc
00B2   2???           00813         CALL    __mulchar
                      00814 ;; >>> /home/sdcc-builder/build/sdcc-build/orig/sdcc/src/pic14/gen.c:1437:call_libraryfunc
00B3   ???? ????      00815         PAGESEL $
                      00816 ;; >>> /home/sdcc-builder/build/sdcc-build/orig/sdcc/src/pic14/gen.c:1393:movwf
                      00817 ;;      1109 rIdx = r0x1054 
00B5   ???? ????      00818         BANKSEL r0x100C
00B7   00??           00819         MOVWF   r0x100C
                      00820 ;; ***  addSign  861
                      00821 ;;; /home/sdcc-builder/build/sdcc-build/orig/sdcc/src/pic14/genarith.c:862:addSign *{*
gpasm-1.4.0 #1106 (Oct  6 2014) obj\Debug\SW.   3-31-2020  02:49:32         PAGE 17


LOC    OBJECT CODE    LINE  SOURCE TEXT
  VALUE

                      00822 ;; >>> /home/sdcc-builder/build/sdcc-build/orig/sdcc/src/pic14/genarith.c:881:addSign
                      00823 ;;      1109 rIdx = r0x1055 
00B8   01??           00824         CLRF    r0x100D
                      00825 ;;; /home/sdcc-builder/build/sdcc-build/orig/sdcc/src/pic14/gen.c:2316:resultRemat *{*
                      00826 ;; ***  genPlus  611
                      00827 ;;; /home/sdcc-builder/build/sdcc-build/orig/sdcc/src/pic14/genarith.c:612:genPlus *{*
                      00828 ;;      613
                      00829 ;;      aopForRemat 392
                      00830 ;;      418: rname _SWs_Info, val 0, const = 0
                      00831 ;;      694 register type nRegs=2
                      00832 ;;      694 register type nRegs=2
                      00833 ;;      833: aopGet AOP_PCODE type PO_IMMEDIATE
                      00834 ;;      _SWs_Info
                      00835 ;;      line = 618 result AOP_REG=r0x1054, size=2, left AOP_PCODE=_SWs_Info, size=2, right AOP_REG=r0x10
                            54, size=2
                      00836 ;;; /home/sdcc-builder/build/sdcc-build/orig/sdcc/src/pic14/genarith.c:142:genPlusIncr *{*
                      00837 ;; ***  genPlusIncr  144
                      00838 ;;      result AOP_REG, left AOP_PCODE, right AOP_REG
                      00839 ;; ***  genPlus  717
                      00840 ;;      833: aopGet AOP_PCODE type PO_IMMEDIATE
                      00841 ;;      _SWs_Info
                      00842 ;; >>> /home/sdcc-builder/build/sdcc-build/orig/sdcc/src/pic14/genarith.c:726:genPlus
                      00843 ;;      1109 rIdx = r0x1054 
00B9   08??           00844         MOVF    r0x100C,W
                      00845 ;; >>> /home/sdcc-builder/build/sdcc-build/orig/sdcc/src/pic14/genarith.c:735:genPlus
00BA   3E??           00846         ADDLW   (_SWs_Info + 0)
                      00847 ;; >>> /home/sdcc-builder/build/sdcc-build/orig/sdcc/src/pic14/genarith.c:736:genPlus
                      00848 ;;      1109 rIdx = r0x1054 
00BB   00??           00849         MOVWF   r0x100C
                      00850 ;; >>> /home/sdcc-builder/build/sdcc-build/orig/sdcc/src/pic14/genarith.c:749:genPlus
                      00851 ;;      1109 rIdx = r0x1055 
00BC   3000           00852         MOVLW   0x00
                      00853 ;; >>> /home/sdcc-builder/build/sdcc-build/orig/sdcc/src/pic14/genarith.c:750:genPlus
00BD   1803           00854         BTFSC   STATUS,0
                      00855 ;; >>> /home/sdcc-builder/build/sdcc-build/orig/sdcc/src/pic14/genarith.c:751:genPlus
                      00856 ;;      1109 rIdx = r0x1055 
00BE   0F??           00857         INCFSZ  r0x100D,W
                      00858 ;; >>> /home/sdcc-builder/build/sdcc-build/orig/sdcc/src/pic14/genarith.c:752:genPlus
00BF   3E??           00859         ADDLW   high (_SWs_Info + 0)
                      00860 ;; >>> /home/sdcc-builder/build/sdcc-build/orig/sdcc/src/pic14/genarith.c:753:genPlus
                      00861 ;;      1109 rIdx = r0x1055 
00C0   00??           00862         MOVWF   r0x100D
                      00863 ;;; /home/sdcc-builder/build/sdcc-build/orig/sdcc/src/pic14/gen.c:2316:resultRemat *{*
                      00864 ;; ***  genPlus  611
                      00865 ;;; /home/sdcc-builder/build/sdcc-build/orig/sdcc/src/pic14/genarith.c:612:genPlus *{*
                      00866 ;;      694 register type nRegs=2
                      00867 ;;      694 register type nRegs=2
                      00868 ;;      line = 618 result AOP_REG=r0x1056, size=2, left AOP_REG=r0x1054, size=2, right AOP_LIT=0x02, siz
                            e=1
                      00869 ;;; /home/sdcc-builder/build/sdcc-build/orig/sdcc/src/pic14/genarith.c:142:genPlusIncr *{*
                      00870 ;; ***  genPlusIncr  144
                      00871 ;;      result AOP_REG, left AOP_REG, right AOP_LIT
                      00872 ;;      genPlusIncr  156
gpasm-1.4.0 #1106 (Oct  6 2014) obj\Debug\SW.   3-31-2020  02:49:32         PAGE 18


LOC    OBJECT CODE    LINE  SOURCE TEXT
  VALUE

                      00873 ;;      genPlusIncr  180
                      00874 ;;      adding lit to something. size 2
                      00875 ;;; /home/sdcc-builder/build/sdcc-build/orig/sdcc/src/pic14/genarith.c:269:genAddLit *{*
                      00876 ;; ***  genAddLit  270
                      00877 ;;  left and result aren't same genAddLit  514
                      00878 ;; >>> /home/sdcc-builder/build/sdcc-build/orig/sdcc/src/pic14/genarith.c:546:genAddLit
00C1   3002           00879         MOVLW   0x02
                      00880 ;; >>> /home/sdcc-builder/build/sdcc-build/orig/sdcc/src/pic14/genarith.c:547:genAddLit
                      00881 ;;      1109 rIdx = r0x1054 
00C2   07??           00882         ADDWF   r0x100C,W
                      00883 ;;; /home/sdcc-builder/build/sdcc-build/orig/sdcc/src/pic14/genarith.c:253:emitMOVWF *{*
                      00884 ;; >>> /home/sdcc-builder/build/sdcc-build/orig/sdcc/src/pic14/genarith.c:257:emitMOVWF
                      00885 ;;      1109 rIdx = r0x1056 
00C3   00??           00886         MOVWF   r0x100E
                      00887 ;; >>> /home/sdcc-builder/build/sdcc-build/orig/sdcc/src/pic14/genarith.c:584:genAddLit
                      00888 ;;      1109 rIdx = r0x1057 
00C4   01??           00889         CLRF    r0x100F
                      00890 ;; >>> /home/sdcc-builder/build/sdcc-build/orig/sdcc/src/pic14/genarith.c:585:genAddLit
                      00891 ;;      1109 rIdx = r0x1057 
00C5   0D??           00892         RLF     r0x100F,F
                      00893 ;; >>> /home/sdcc-builder/build/sdcc-build/orig/sdcc/src/pic14/genarith.c:586:genAddLit
                      00894 ;;      1109 rIdx = r0x1055 
00C6   08??           00895         MOVF    r0x100D,W
                      00896 ;; >>> /home/sdcc-builder/build/sdcc-build/orig/sdcc/src/pic14/genarith.c:587:genAddLit
                      00897 ;;      1109 rIdx = r0x1057 
00C7   07??           00898         ADDWF   r0x100F,F
                      00899 ;; ***  addSign  861
                      00900 ;;; /home/sdcc-builder/build/sdcc-build/orig/sdcc/src/pic14/genarith.c:862:addSign *{*
                      00901 ;;; /home/sdcc-builder/build/sdcc-build/orig/sdcc/src/pic14/gen.c:2316:resultRemat *{*
                      00902 ;;; /home/sdcc-builder/build/sdcc-build/orig/sdcc/src/pic14/gen.c:6162:genPointerGet *{*
                      00903 ;; ***  genPointerGet  6163
                      00904 ;;; /home/sdcc-builder/build/sdcc-build/orig/sdcc/src/pic14/gen.c:5944:genNearPointerGet *{*
                      00905 ;; ***  genNearPointerGet  5945
                      00906 ;;      694 register type nRegs=2
                      00907 ;; ***  genNearPointerGet  5961
                      00908 ;;      694 register type nRegs=1
                      00909 ;;; /home/sdcc-builder/build/sdcc-build/orig/sdcc/src/pic14/gen.c:1343:mov2w_op *{*
                      00910 ;; ***  mov2w  1381  offset=0
                      00911 ;; >>> /home/sdcc-builder/build/sdcc-build/orig/sdcc/src/pic14/gen.c:1386:mov2w
                      00912 ;;      1109 rIdx = r0x1056 
00C8   08??           00913         MOVF    r0x100E,W
                      00914 ;; >>> /home/sdcc-builder/build/sdcc-build/orig/sdcc/src/pic14/gen.c:5602:setup_fsr
00C9   1283 1303      00915         BANKSEL FSR
00CB   0084           00916         MOVWF   FSR
                      00917 ;;; /home/sdcc-builder/build/sdcc-build/orig/sdcc/src/pic14/gen.c:5553:SetIrp *{*
                      00918 ;; >>> /home/sdcc-builder/build/sdcc-build/orig/sdcc/src/pic14/gen.c:5580:SetIrp
00CC   1383           00919         BCF     STATUS,7
                      00920 ;; >>> /home/sdcc-builder/build/sdcc-build/orig/sdcc/src/pic14/gen.c:5583:SetIrp
00CD   ???? ????      00921         BANKSEL r0x100F
00CF   18??           00922         BTFSC   r0x100F,0
                      00923 ;; >>> /home/sdcc-builder/build/sdcc-build/orig/sdcc/src/pic14/gen.c:5584:SetIrp
00D0   1783           00924         BSF     STATUS,7
                      00925 ;; ***  genNearPointerGet  5988
gpasm-1.4.0 #1106 (Oct  6 2014) obj\Debug\SW.   3-31-2020  02:49:32         PAGE 19


LOC    OBJECT CODE    LINE  SOURCE TEXT
  VALUE

                      00926 ;; >>> /home/sdcc-builder/build/sdcc-build/orig/sdcc/src/pic14/gen.c:5995:genNearPointerGet
00D1   1283 1303      00927         BANKSEL INDF
00D3   0800           00928         MOVF    INDF,W
                      00929 ;; >>> /home/sdcc-builder/build/sdcc-build/orig/sdcc/src/pic14/gen.c:6002:genNearPointerGet
                      00930 ;;      1109 rIdx = r0x1058 
00D4   ???? ????      00931         BANKSEL r0x1010
00D6   00??           00932         MOVWF   r0x1010
                      00933 ;;; /home/sdcc-builder/build/sdcc-build/orig/sdcc/src/pic14/gen.c:2316:resultRemat *{*
                      00934 ;;; /home/sdcc-builder/build/sdcc-build/orig/sdcc/src/pic14/gen.c:3547:genCmpGt *{*
                      00935 ;; ***  genCmpGt  3548
                      00936 ;;      694 register type nRegs=1
                      00937 ;;; /home/sdcc-builder/build/sdcc-build/orig/sdcc/src/pic14/gen.c:3294:genCmp *{*
                      00938 ;;swapping arguments (AOP_TYPEs 1/2)
                      00939 ;;unsigned compare: left >= lit(0x4=4), size=1
                      00940 ;; >>> /home/sdcc-builder/build/sdcc-build/orig/sdcc/src/pic14/gen.c:3265:pic14_mov2w_regOrLit
00D7   3004           00941         MOVLW   0x04
                      00942 ;; >>> /home/sdcc-builder/build/sdcc-build/orig/sdcc/src/pic14/gen.c:3432:genCmp
                      00943 ;;      1109 rIdx = r0x1058 
00D8   02??           00944         SUBWF   r0x1010,W
                      00945 ;;; /home/sdcc-builder/build/sdcc-build/orig/sdcc/src/pic14/gen.c:3237:genSkipc *{*
                      00946 ;; >>> /home/sdcc-builder/build/sdcc-build/orig/sdcc/src/pic14/gen.c:3242:genSkipc
00D9   1803           00947         BTFSC   STATUS,0
                      00948 ;; >>> /home/sdcc-builder/build/sdcc-build/orig/sdcc/src/pic14/gen.c:3246:genSkipc
                      00949 ;; ***  popGetLabel  key=29, label offset 14
00DA   2???           00950         GOTO    _00143_DS_
                      00951 ;;genSkipc:3247: created from rifx:027A5DF4
                      00952 ;;; /home/sdcc-builder/build/sdcc-build/orig/sdcc/src/pic14/gen.c:2316:resultRemat *{*
                      00953 ;;; /home/sdcc-builder/build/sdcc-build/orig/sdcc/src/pic14/gen.c:2316:resultRemat *{*
                      00954 ;;; /home/sdcc-builder/build/sdcc-build/orig/sdcc/src/pic14/gen.c:7071:genJumpTab *{*
                      00955 ;; ***  genJumpTab  7072
                      00956 ;;      694 register type nRegs=1
                      00957 ;; >>> /home/sdcc-builder/build/sdcc-build/orig/sdcc/src/pic14/gen.c:7087:genJumpTab
                      00958 ;; ***  popGetLabel  key=71, label offset 14
00DB   30??           00959         MOVLW   HIGH(_00185_DS_)
                      00960 ;; >>> /home/sdcc-builder/build/sdcc-build/orig/sdcc/src/pic14/gen.c:7088:genJumpTab
00DC   1283 1303      00961         BANKSEL PCLATH
00DE   008A           00962         MOVWF   PCLATH
                      00963 ;; >>> /home/sdcc-builder/build/sdcc-build/orig/sdcc/src/pic14/gen.c:7089:genJumpTab
                      00964 ;; ***  popGetLabel  key=71, label offset 14
00DF   30??           00965         MOVLW   _00185_DS_
                      00966 ;; >>> /home/sdcc-builder/build/sdcc-build/orig/sdcc/src/pic14/gen.c:7090:genJumpTab
                      00967 ;;      1109 rIdx = r0x1058 
00E0   ???? ????      00968         BANKSEL r0x1010
00E2   07??           00969         ADDWF   r0x1010,W
                      00970 ;; >>> /home/sdcc-builder/build/sdcc-build/orig/sdcc/src/pic14/gen.c:7091:genJumpTab
00E3   1C03           00971         BTFSS   STATUS,0
00E4   2???           00972         GOTO    _00001_DS_
                      00973 ;; >>> /home/sdcc-builder/build/sdcc-build/orig/sdcc/src/pic14/gen.c:7092:genJumpTab
00E5   1283 1303      00974         BANKSEL PCLATH
00E7   0A8A           00975         INCF    PCLATH,F
                      00976 ;; >>> /home/sdcc-builder/build/sdcc-build/orig/sdcc/src/pic14/gen.c:7093:genJumpTab
00E8                  00977 _00001_DS_
00E8   0082           00978         MOVWF   PCL
gpasm-1.4.0 #1106 (Oct  6 2014) obj\Debug\SW.   3-31-2020  02:49:32         PAGE 20


LOC    OBJECT CODE    LINE  SOURCE TEXT
  VALUE

                      00979 ;; >>> /home/sdcc-builder/build/sdcc-build/orig/sdcc/src/pic14/gen.c:7102:genJumpTab
                      00980 ;; ***  popGetLabel  key=11, label offset 14
00E9                  00981 _00185_DS_
00E9   2???           00982         GOTO    _00125_DS_
                      00983 ;; >>> /home/sdcc-builder/build/sdcc-build/orig/sdcc/src/pic14/gen.c:7102:genJumpTab
                      00984 ;; ***  popGetLabel  key=15, label offset 14
00EA   2???           00985         GOTO    _00129_DS_
                      00986 ;; >>> /home/sdcc-builder/build/sdcc-build/orig/sdcc/src/pic14/gen.c:7102:genJumpTab
                      00987 ;; ***  popGetLabel  key=18, label offset 14
00EB   2???           00988         GOTO    _00132_DS_
                      00989 ;; >>> /home/sdcc-builder/build/sdcc-build/orig/sdcc/src/pic14/gen.c:7102:genJumpTab
                      00990 ;; ***  popGetLabel  key=22, label offset 14
00EC   2???           00991         GOTO    _00136_DS_
                      00992 ;;; /home/sdcc-builder/build/sdcc-build/orig/sdcc/src/pic14/gen.c:2316:resultRemat *{*
                      00993 ;;; /home/sdcc-builder/build/sdcc-build/orig/sdcc/src/pic14/gen.c:2760:genLabel *{*
                      00994 ;; ***  genLabel  2763
                      00995 ;;; /home/sdcc-builder/build/sdcc-build/orig/sdcc/src/pic14/gen.c:2316:resultRemat *{*
                      00996 ;;; /home/sdcc-builder/build/sdcc-build/orig/sdcc/src/pic14/gen.c:6162:genPointerGet *{*
                      00997 ;; ***  genPointerGet  6163
                      00998 ;;; /home/sdcc-builder/build/sdcc-build/orig/sdcc/src/pic14/gen.c:5944:genNearPointerGet *{*
                      00999 ;; ***  genNearPointerGet  5945
                      01000 ;;      694 register type nRegs=2
                      01001 ;; ***  genNearPointerGet  5961
                      01002 ;;      694 register type nRegs=1
                      01003 ;;; /home/sdcc-builder/build/sdcc-build/orig/sdcc/src/pic14/gen.c:1343:mov2w_op *{*
                      01004 ;; ***  mov2w  1381  offset=0
                      01005 ;; >>> /home/sdcc-builder/build/sdcc-build/orig/sdcc/src/pic14/gen.c:1386:mov2w
                      01006 ;;      1109 rIdx = r0x1054 
00ED                  01007 _00125_DS_
                      01008         .line   111; "SW.c"     if ((SWs_Info[index].sw_samples[0] == SW_PRESSED_LEVEL) &&
00ED   ???? ????      01009         BANKSEL r0x100C
00EF   08??           01010         MOVF    r0x100C,W
                      01011 ;; >>> /home/sdcc-builder/build/sdcc-build/orig/sdcc/src/pic14/gen.c:5602:setup_fsr
00F0   1283 1303      01012         BANKSEL FSR
00F2   0084           01013         MOVWF   FSR
                      01014 ;;; /home/sdcc-builder/build/sdcc-build/orig/sdcc/src/pic14/gen.c:5553:SetIrp *{*
                      01015 ;; >>> /home/sdcc-builder/build/sdcc-build/orig/sdcc/src/pic14/gen.c:5580:SetIrp
00F3   1383           01016         BCF     STATUS,7
                      01017 ;; >>> /home/sdcc-builder/build/sdcc-build/orig/sdcc/src/pic14/gen.c:5583:SetIrp
00F4   ???? ????      01018         BANKSEL r0x100D
00F6   18??           01019         BTFSC   r0x100D,0
                      01020 ;; >>> /home/sdcc-builder/build/sdcc-build/orig/sdcc/src/pic14/gen.c:5584:SetIrp
00F7   1783           01021         BSF     STATUS,7
                      01022 ;; ***  genNearPointerGet  5988
                      01023 ;; >>> /home/sdcc-builder/build/sdcc-build/orig/sdcc/src/pic14/gen.c:5995:genNearPointerGet
00F8   1283 1303      01024         BANKSEL INDF
00FA   0800           01025         MOVF    INDF,W
                      01026 ;; >>> /home/sdcc-builder/build/sdcc-build/orig/sdcc/src/pic14/gen.c:6002:genNearPointerGet
                      01027 ;;      1109 rIdx = r0x1058 
00FB   ???? ????      01028         BANKSEL r0x1010
00FD   00??           01029         MOVWF   r0x1010
                      01030 ;;; /home/sdcc-builder/build/sdcc-build/orig/sdcc/src/pic14/gen.c:2316:resultRemat *{*
                      01031 ;;; /home/sdcc-builder/build/sdcc-build/orig/sdcc/src/pic14/gen.c:6759:genIfx *{*
gpasm-1.4.0 #1106 (Oct  6 2014) obj\Debug\SW.   3-31-2020  02:49:32         PAGE 21


LOC    OBJECT CODE    LINE  SOURCE TEXT
  VALUE

                      01032 ;; ***  genIfx  6760
                      01033 ;;      694 register type nRegs=1
                      01034 ;; ***  pic14_toBoolean  1515
                      01035 ;; >>> /home/sdcc-builder/build/sdcc-build/orig/sdcc/src/pic14/gen.c:1522:pic14_toBoolean
00FE   08??           01036         MOVF    r0x1010,W
00FF   1D03           01037         BTFSS   STATUS,2
                      01038 ;; >>> /home/sdcc-builder/build/sdcc-build/orig/sdcc/src/pic14/gen.c:6809:genIfx
                      01039 ;; ***  popGetLabel  key=29, label offset 14
0100   2???           01040         GOTO    _00143_DS_
                      01041 ;;; /home/sdcc-builder/build/sdcc-build/orig/sdcc/src/pic14/gen.c:2316:resultRemat *{*
                      01042 ;; ***  genPlus  611
                      01043 ;;; /home/sdcc-builder/build/sdcc-build/orig/sdcc/src/pic14/genarith.c:612:genPlus *{*
                      01044 ;;      694 register type nRegs=2
                      01045 ;;      694 register type nRegs=2
                      01046 ;;      line = 618 result AOP_REG=r0x1058, size=2, left AOP_REG=r0x1054, size=2, right AOP_LIT=0x01, siz
                            e=1
                      01047 ;;; /home/sdcc-builder/build/sdcc-build/orig/sdcc/src/pic14/genarith.c:142:genPlusIncr *{*
                      01048 ;; ***  genPlusIncr  144
                      01049 ;;      result AOP_REG, left AOP_REG, right AOP_LIT
                      01050 ;;      genPlusIncr  156
                      01051 ;;      genPlusIncr  180
                      01052 ;;      adding lit to something. size 2
                      01053 ;;; /home/sdcc-builder/build/sdcc-build/orig/sdcc/src/pic14/genarith.c:269:genAddLit *{*
                      01054 ;; ***  genAddLit  270
                      01055 ;;  left and result aren't same genAddLit  514
                      01056 ;; >>> /home/sdcc-builder/build/sdcc-build/orig/sdcc/src/pic14/genarith.c:546:genAddLit
                      01057         .line   112; "SW.c"     (SWs_Info[index].sw_samples[1] == SW_PRESSED_LEVEL))
0101   3001           01058         MOVLW   0x01
                      01059 ;; >>> /home/sdcc-builder/build/sdcc-build/orig/sdcc/src/pic14/genarith.c:547:genAddLit
                      01060 ;;      1109 rIdx = r0x1054 
0102   07??           01061         ADDWF   r0x100C,W
                      01062 ;;; /home/sdcc-builder/build/sdcc-build/orig/sdcc/src/pic14/genarith.c:253:emitMOVWF *{*
                      01063 ;; >>> /home/sdcc-builder/build/sdcc-build/orig/sdcc/src/pic14/genarith.c:257:emitMOVWF
                      01064 ;;      1109 rIdx = r0x1058 
0103   00??           01065         MOVWF   r0x1010
                      01066 ;; >>> /home/sdcc-builder/build/sdcc-build/orig/sdcc/src/pic14/genarith.c:584:genAddLit
                      01067 ;;      1109 rIdx = r0x1059 
0104   01??           01068         CLRF    r0x1011
                      01069 ;; >>> /home/sdcc-builder/build/sdcc-build/orig/sdcc/src/pic14/genarith.c:585:genAddLit
                      01070 ;;      1109 rIdx = r0x1059 
0105   0D??           01071         RLF     r0x1011,F
                      01072 ;; >>> /home/sdcc-builder/build/sdcc-build/orig/sdcc/src/pic14/genarith.c:586:genAddLit
                      01073 ;;      1109 rIdx = r0x1055 
0106   08??           01074         MOVF    r0x100D,W
                      01075 ;; >>> /home/sdcc-builder/build/sdcc-build/orig/sdcc/src/pic14/genarith.c:587:genAddLit
                      01076 ;;      1109 rIdx = r0x1059 
0107   07??           01077         ADDWF   r0x1011,F
                      01078 ;; ***  addSign  861
                      01079 ;;; /home/sdcc-builder/build/sdcc-build/orig/sdcc/src/pic14/genarith.c:862:addSign *{*
                      01080 ;;; /home/sdcc-builder/build/sdcc-build/orig/sdcc/src/pic14/gen.c:2316:resultRemat *{*
                      01081 ;;; /home/sdcc-builder/build/sdcc-build/orig/sdcc/src/pic14/gen.c:6162:genPointerGet *{*
                      01082 ;; ***  genPointerGet  6163
                      01083 ;;; /home/sdcc-builder/build/sdcc-build/orig/sdcc/src/pic14/gen.c:5944:genNearPointerGet *{*
gpasm-1.4.0 #1106 (Oct  6 2014) obj\Debug\SW.   3-31-2020  02:49:32         PAGE 22


LOC    OBJECT CODE    LINE  SOURCE TEXT
  VALUE

                      01084 ;; ***  genNearPointerGet  5945
                      01085 ;;      694 register type nRegs=2
                      01086 ;; ***  genNearPointerGet  5961
                      01087 ;;      694 register type nRegs=1
                      01088 ;;; /home/sdcc-builder/build/sdcc-build/orig/sdcc/src/pic14/gen.c:1343:mov2w_op *{*
                      01089 ;; ***  mov2w  1381  offset=0
                      01090 ;; >>> /home/sdcc-builder/build/sdcc-build/orig/sdcc/src/pic14/gen.c:1386:mov2w
                      01091 ;;      1109 rIdx = r0x1058 
0108   08??           01092         MOVF    r0x1010,W
                      01093 ;; >>> /home/sdcc-builder/build/sdcc-build/orig/sdcc/src/pic14/gen.c:5602:setup_fsr
0109   1283 1303      01094         BANKSEL FSR
010B   0084           01095         MOVWF   FSR
                      01096 ;;; /home/sdcc-builder/build/sdcc-build/orig/sdcc/src/pic14/gen.c:5553:SetIrp *{*
                      01097 ;; >>> /home/sdcc-builder/build/sdcc-build/orig/sdcc/src/pic14/gen.c:5580:SetIrp
010C   1383           01098         BCF     STATUS,7
                      01099 ;; >>> /home/sdcc-builder/build/sdcc-build/orig/sdcc/src/pic14/gen.c:5583:SetIrp
010D   ???? ????      01100         BANKSEL r0x1011
010F   18??           01101         BTFSC   r0x1011,0
                      01102 ;; >>> /home/sdcc-builder/build/sdcc-build/orig/sdcc/src/pic14/gen.c:5584:SetIrp
0110   1783           01103         BSF     STATUS,7
                      01104 ;; ***  genNearPointerGet  5988
                      01105 ;; >>> /home/sdcc-builder/build/sdcc-build/orig/sdcc/src/pic14/gen.c:5995:genNearPointerGet
0111   1283 1303      01106         BANKSEL INDF
0113   0800           01107         MOVF    INDF,W
                      01108 ;; >>> /home/sdcc-builder/build/sdcc-build/orig/sdcc/src/pic14/gen.c:6002:genNearPointerGet
                      01109 ;;      1109 rIdx = r0x105A 
0114   ???? ????      01110         BANKSEL r0x1012
0116   00??           01111         MOVWF   r0x1012
                      01112 ;;; /home/sdcc-builder/build/sdcc-build/orig/sdcc/src/pic14/gen.c:2316:resultRemat *{*
                      01113 ;;; /home/sdcc-builder/build/sdcc-build/orig/sdcc/src/pic14/gen.c:6759:genIfx *{*
                      01114 ;; ***  genIfx  6760
                      01115 ;;      694 register type nRegs=1
                      01116 ;; ***  pic14_toBoolean  1515
                      01117 ;; >>> /home/sdcc-builder/build/sdcc-build/orig/sdcc/src/pic14/gen.c:1522:pic14_toBoolean
0117   08??           01118         MOVF    r0x1012,W
0118   1D03           01119         BTFSS   STATUS,2
                      01120 ;; >>> /home/sdcc-builder/build/sdcc-build/orig/sdcc/src/pic14/gen.c:6809:genIfx
                      01121 ;; ***  popGetLabel  key=29, label offset 14
0119   2???           01122         GOTO    _00143_DS_
                      01123 ;;; /home/sdcc-builder/build/sdcc-build/orig/sdcc/src/pic14/gen.c:2316:resultRemat *{*
                      01124 ;;; /home/sdcc-builder/build/sdcc-build/orig/sdcc/src/pic14/gen.c:6686:genPointerSet *{*
                      01125 ;; ***  genPointerSet  6687
                      01126 ;;; /home/sdcc-builder/build/sdcc-build/orig/sdcc/src/pic14/gen.c:6505:genNearPointerSet *{*
                      01127 ;; ***  genNearPointerSet  6506
                      01128 ;;      694 register type nRegs=2
                      01129 ;; ***  genNearPointerSet  6521
                      01130 ;;      line = 6523 result AOP_REG=r0x1056, size=2, left -=-, size=0, right AOP_LIT=0x01, size=1
                      01131 ;;; /home/sdcc-builder/build/sdcc-build/orig/sdcc/src/pic14/gen.c:1343:mov2w_op *{*
                      01132 ;; ***  mov2w  1381  offset=0
                      01133 ;; >>> /home/sdcc-builder/build/sdcc-build/orig/sdcc/src/pic14/gen.c:1386:mov2w
                      01134 ;;      1109 rIdx = r0x1056 
                      01135         .line   114; "SW.c"     SWs_Info[index].sw_state = SW_PRE_PRESSED;
011A   08??           01136         MOVF    r0x100E,W
gpasm-1.4.0 #1106 (Oct  6 2014) obj\Debug\SW.   3-31-2020  02:49:32         PAGE 23


LOC    OBJECT CODE    LINE  SOURCE TEXT
  VALUE

                      01137 ;; >>> /home/sdcc-builder/build/sdcc-build/orig/sdcc/src/pic14/gen.c:5602:setup_fsr
011B   1283 1303      01138         BANKSEL FSR
011D   0084           01139         MOVWF   FSR
                      01140 ;;; /home/sdcc-builder/build/sdcc-build/orig/sdcc/src/pic14/gen.c:5553:SetIrp *{*
                      01141 ;; >>> /home/sdcc-builder/build/sdcc-build/orig/sdcc/src/pic14/gen.c:5580:SetIrp
011E   1383           01142         BCF     STATUS,7
                      01143 ;; >>> /home/sdcc-builder/build/sdcc-build/orig/sdcc/src/pic14/gen.c:5583:SetIrp
011F   ???? ????      01144         BANKSEL r0x100F
0121   18??           01145         BTFSC   r0x100F,0
                      01146 ;; >>> /home/sdcc-builder/build/sdcc-build/orig/sdcc/src/pic14/gen.c:5584:SetIrp
0122   1783           01147         BSF     STATUS,7
                      01148 ;; ***  genNearPointerSet  6548
                      01149 ;; >>> /home/sdcc-builder/build/sdcc-build/orig/sdcc/src/pic14/gen.c:6560:genNearPointerSet
0123   3001           01150         MOVLW   0x01
                      01151 ;; >>> /home/sdcc-builder/build/sdcc-build/orig/sdcc/src/pic14/gen.c:6569:genNearPointerSet
0124   1283 1303      01152         BANKSEL INDF
0126   0080           01153         MOVWF   INDF
                      01154 ;; ***  genNearPointerSet  6577
                      01155 ;; ***  genNearPointerSet  6603
                      01156 ;;; /home/sdcc-builder/build/sdcc-build/orig/sdcc/src/pic14/gen.c:2316:resultRemat *{*
                      01157 ;;; /home/sdcc-builder/build/sdcc-build/orig/sdcc/src/pic14/gen.c:2778:genGoto *{*
                      01158 ;; >>> /home/sdcc-builder/build/sdcc-build/orig/sdcc/src/pic14/gen.c:2780:genGoto
                      01159 ;; ***  popGetLabel  key=29, label offset 14
                      01160         .line   119; "SW.c"     break;
0127   2???           01161         GOTO    _00143_DS_
                      01162 ;;; /home/sdcc-builder/build/sdcc-build/orig/sdcc/src/pic14/gen.c:2316:resultRemat *{*
                      01163 ;;; /home/sdcc-builder/build/sdcc-build/orig/sdcc/src/pic14/gen.c:2760:genLabel *{*
                      01164 ;; ***  genLabel  2763
                      01165 ;;; /home/sdcc-builder/build/sdcc-build/orig/sdcc/src/pic14/gen.c:2316:resultRemat *{*
                      01166 ;; ***  genPlus  611
                      01167 ;;; /home/sdcc-builder/build/sdcc-build/orig/sdcc/src/pic14/genarith.c:612:genPlus *{*
                      01168 ;;      694 register type nRegs=2
                      01169 ;;      694 register type nRegs=2
                      01170 ;;      line = 618 result AOP_REG=r0x1058, size=2, left AOP_REG=r0x1054, size=2, right AOP_LIT=0x01, siz
                            e=1
                      01171 ;;; /home/sdcc-builder/build/sdcc-build/orig/sdcc/src/pic14/genarith.c:142:genPlusIncr *{*
                      01172 ;; ***  genPlusIncr  144
                      01173 ;;      result AOP_REG, left AOP_REG, right AOP_LIT
                      01174 ;;      genPlusIncr  156
                      01175 ;;      genPlusIncr  180
                      01176 ;;      adding lit to something. size 2
                      01177 ;;; /home/sdcc-builder/build/sdcc-build/orig/sdcc/src/pic14/genarith.c:269:genAddLit *{*
                      01178 ;; ***  genAddLit  270
                      01179 ;;  left and result aren't same genAddLit  514
                      01180 ;; >>> /home/sdcc-builder/build/sdcc-build/orig/sdcc/src/pic14/genarith.c:546:genAddLit
0128                  01181 _00129_DS_
                      01182         .line   122; "SW.c"     if (SWs_Info[index].sw_samples[1] == SW_PRESSED_LEVEL)
0128   3001           01183         MOVLW   0x01
                      01184 ;; >>> /home/sdcc-builder/build/sdcc-build/orig/sdcc/src/pic14/genarith.c:547:genAddLit
                      01185 ;;      1109 rIdx = r0x1054 
0129   ???? ????      01186         BANKSEL r0x100C
012B   07??           01187         ADDWF   r0x100C,W
                      01188 ;;; /home/sdcc-builder/build/sdcc-build/orig/sdcc/src/pic14/genarith.c:253:emitMOVWF *{*
gpasm-1.4.0 #1106 (Oct  6 2014) obj\Debug\SW.   3-31-2020  02:49:32         PAGE 24


LOC    OBJECT CODE    LINE  SOURCE TEXT
  VALUE

                      01189 ;; >>> /home/sdcc-builder/build/sdcc-build/orig/sdcc/src/pic14/genarith.c:257:emitMOVWF
                      01190 ;;      1109 rIdx = r0x1058 
012C   00??           01191         MOVWF   r0x1010
                      01192 ;; >>> /home/sdcc-builder/build/sdcc-build/orig/sdcc/src/pic14/genarith.c:584:genAddLit
                      01193 ;;      1109 rIdx = r0x1059 
012D   01??           01194         CLRF    r0x1011
                      01195 ;; >>> /home/sdcc-builder/build/sdcc-build/orig/sdcc/src/pic14/genarith.c:585:genAddLit
                      01196 ;;      1109 rIdx = r0x1059 
012E   0D??           01197         RLF     r0x1011,F
                      01198 ;; >>> /home/sdcc-builder/build/sdcc-build/orig/sdcc/src/pic14/genarith.c:586:genAddLit
                      01199 ;;      1109 rIdx = r0x1055 
012F   08??           01200         MOVF    r0x100D,W
                      01201 ;; >>> /home/sdcc-builder/build/sdcc-build/orig/sdcc/src/pic14/genarith.c:587:genAddLit
                      01202 ;;      1109 rIdx = r0x1059 
0130   07??           01203         ADDWF   r0x1011,F
                      01204 ;; ***  addSign  861
                      01205 ;;; /home/sdcc-builder/build/sdcc-build/orig/sdcc/src/pic14/genarith.c:862:addSign *{*
                      01206 ;;; /home/sdcc-builder/build/sdcc-build/orig/sdcc/src/pic14/gen.c:2316:resultRemat *{*
                      01207 ;;; /home/sdcc-builder/build/sdcc-build/orig/sdcc/src/pic14/gen.c:6162:genPointerGet *{*
                      01208 ;; ***  genPointerGet  6163
                      01209 ;;; /home/sdcc-builder/build/sdcc-build/orig/sdcc/src/pic14/gen.c:5944:genNearPointerGet *{*
                      01210 ;; ***  genNearPointerGet  5945
                      01211 ;;      694 register type nRegs=2
                      01212 ;; ***  genNearPointerGet  5961
                      01213 ;;      694 register type nRegs=1
                      01214 ;;; /home/sdcc-builder/build/sdcc-build/orig/sdcc/src/pic14/gen.c:1343:mov2w_op *{*
                      01215 ;; ***  mov2w  1381  offset=0
                      01216 ;; >>> /home/sdcc-builder/build/sdcc-build/orig/sdcc/src/pic14/gen.c:1386:mov2w
                      01217 ;;      1109 rIdx = r0x1058 
0131   08??           01218         MOVF    r0x1010,W
                      01219 ;; >>> /home/sdcc-builder/build/sdcc-build/orig/sdcc/src/pic14/gen.c:5602:setup_fsr
0132   1283 1303      01220         BANKSEL FSR
0134   0084           01221         MOVWF   FSR
                      01222 ;;; /home/sdcc-builder/build/sdcc-build/orig/sdcc/src/pic14/gen.c:5553:SetIrp *{*
                      01223 ;; >>> /home/sdcc-builder/build/sdcc-build/orig/sdcc/src/pic14/gen.c:5580:SetIrp
0135   1383           01224         BCF     STATUS,7
                      01225 ;; >>> /home/sdcc-builder/build/sdcc-build/orig/sdcc/src/pic14/gen.c:5583:SetIrp
0136   ???? ????      01226         BANKSEL r0x1011
0138   18??           01227         BTFSC   r0x1011,0
                      01228 ;; >>> /home/sdcc-builder/build/sdcc-build/orig/sdcc/src/pic14/gen.c:5584:SetIrp
0139   1783           01229         BSF     STATUS,7
                      01230 ;; ***  genNearPointerGet  5988
                      01231 ;; >>> /home/sdcc-builder/build/sdcc-build/orig/sdcc/src/pic14/gen.c:5995:genNearPointerGet
013A   1283 1303      01232         BANKSEL INDF
013C   0800           01233         MOVF    INDF,W
                      01234 ;; >>> /home/sdcc-builder/build/sdcc-build/orig/sdcc/src/pic14/gen.c:6002:genNearPointerGet
                      01235 ;;      1109 rIdx = r0x105A 
013D   ???? ????      01236         BANKSEL r0x1012
013F   00??           01237         MOVWF   r0x1012
                      01238 ;;; /home/sdcc-builder/build/sdcc-build/orig/sdcc/src/pic14/gen.c:2316:resultRemat *{*
                      01239 ;;; /home/sdcc-builder/build/sdcc-build/orig/sdcc/src/pic14/gen.c:6759:genIfx *{*
                      01240 ;; ***  genIfx  6760
                      01241 ;;      694 register type nRegs=1
gpasm-1.4.0 #1106 (Oct  6 2014) obj\Debug\SW.   3-31-2020  02:49:32         PAGE 25


LOC    OBJECT CODE    LINE  SOURCE TEXT
  VALUE

                      01242 ;; ***  pic14_toBoolean  1515
                      01243 ;; >>> /home/sdcc-builder/build/sdcc-build/orig/sdcc/src/pic14/gen.c:1522:pic14_toBoolean
0140   08??           01244         MOVF    r0x1012,W
0141   1D03           01245         BTFSS   STATUS,2
                      01246 ;; >>> /home/sdcc-builder/build/sdcc-build/orig/sdcc/src/pic14/gen.c:6809:genIfx
                      01247 ;; ***  popGetLabel  key=29, label offset 14
0142   2???           01248         GOTO    _00143_DS_
                      01249 ;;; /home/sdcc-builder/build/sdcc-build/orig/sdcc/src/pic14/gen.c:2316:resultRemat *{*
                      01250 ;;; /home/sdcc-builder/build/sdcc-build/orig/sdcc/src/pic14/gen.c:6686:genPointerSet *{*
                      01251 ;; ***  genPointerSet  6687
                      01252 ;;; /home/sdcc-builder/build/sdcc-build/orig/sdcc/src/pic14/gen.c:6505:genNearPointerSet *{*
                      01253 ;; ***  genNearPointerSet  6506
                      01254 ;;      694 register type nRegs=2
                      01255 ;; ***  genNearPointerSet  6521
                      01256 ;;      line = 6523 result AOP_REG=r0x1056, size=2, left -=-, size=0, right AOP_LIT=0x02, size=1
                      01257 ;;; /home/sdcc-builder/build/sdcc-build/orig/sdcc/src/pic14/gen.c:1343:mov2w_op *{*
                      01258 ;; ***  mov2w  1381  offset=0
                      01259 ;; >>> /home/sdcc-builder/build/sdcc-build/orig/sdcc/src/pic14/gen.c:1386:mov2w
                      01260 ;;      1109 rIdx = r0x1056 
                      01261         .line   124; "SW.c"     SWs_Info[index].sw_state = SW_PRESSED;
0143   08??           01262         MOVF    r0x100E,W
                      01263 ;; >>> /home/sdcc-builder/build/sdcc-build/orig/sdcc/src/pic14/gen.c:5602:setup_fsr
0144   1283 1303      01264         BANKSEL FSR
0146   0084           01265         MOVWF   FSR
                      01266 ;;; /home/sdcc-builder/build/sdcc-build/orig/sdcc/src/pic14/gen.c:5553:SetIrp *{*
                      01267 ;; >>> /home/sdcc-builder/build/sdcc-build/orig/sdcc/src/pic14/gen.c:5580:SetIrp
0147   1383           01268         BCF     STATUS,7
                      01269 ;; >>> /home/sdcc-builder/build/sdcc-build/orig/sdcc/src/pic14/gen.c:5583:SetIrp
0148   ???? ????      01270         BANKSEL r0x100F
014A   18??           01271         BTFSC   r0x100F,0
                      01272 ;; >>> /home/sdcc-builder/build/sdcc-build/orig/sdcc/src/pic14/gen.c:5584:SetIrp
014B   1783           01273         BSF     STATUS,7
                      01274 ;; ***  genNearPointerSet  6548
                      01275 ;; >>> /home/sdcc-builder/build/sdcc-build/orig/sdcc/src/pic14/gen.c:6560:genNearPointerSet
014C   3002           01276         MOVLW   0x02
                      01277 ;; >>> /home/sdcc-builder/build/sdcc-build/orig/sdcc/src/pic14/gen.c:6569:genNearPointerSet
014D   1283 1303      01278         BANKSEL INDF
014F   0080           01279         MOVWF   INDF
                      01280 ;; ***  genNearPointerSet  6577
                      01281 ;; ***  genNearPointerSet  6603
                      01282 ;;; /home/sdcc-builder/build/sdcc-build/orig/sdcc/src/pic14/gen.c:2316:resultRemat *{*
                      01283 ;;; /home/sdcc-builder/build/sdcc-build/orig/sdcc/src/pic14/gen.c:2778:genGoto *{*
                      01284 ;; >>> /home/sdcc-builder/build/sdcc-build/orig/sdcc/src/pic14/gen.c:2780:genGoto
                      01285 ;; ***  popGetLabel  key=29, label offset 14
                      01286         .line   129; "SW.c"     break;
0150   2???           01287         GOTO    _00143_DS_
                      01288 ;;; /home/sdcc-builder/build/sdcc-build/orig/sdcc/src/pic14/gen.c:2316:resultRemat *{*
                      01289 ;;; /home/sdcc-builder/build/sdcc-build/orig/sdcc/src/pic14/gen.c:2760:genLabel *{*
                      01290 ;; ***  genLabel  2763
                      01291 ;;; /home/sdcc-builder/build/sdcc-build/orig/sdcc/src/pic14/gen.c:2316:resultRemat *{*
                      01292 ;;; /home/sdcc-builder/build/sdcc-build/orig/sdcc/src/pic14/gen.c:6162:genPointerGet *{*
                      01293 ;; ***  genPointerGet  6163
                      01294 ;;; /home/sdcc-builder/build/sdcc-build/orig/sdcc/src/pic14/gen.c:5944:genNearPointerGet *{*
gpasm-1.4.0 #1106 (Oct  6 2014) obj\Debug\SW.   3-31-2020  02:49:32         PAGE 26


LOC    OBJECT CODE    LINE  SOURCE TEXT
  VALUE

                      01295 ;; ***  genNearPointerGet  5945
                      01296 ;;      694 register type nRegs=2
                      01297 ;; ***  genNearPointerGet  5961
                      01298 ;;      694 register type nRegs=1
                      01299 ;;; /home/sdcc-builder/build/sdcc-build/orig/sdcc/src/pic14/gen.c:1343:mov2w_op *{*
                      01300 ;; ***  mov2w  1381  offset=0
                      01301 ;; >>> /home/sdcc-builder/build/sdcc-build/orig/sdcc/src/pic14/gen.c:1386:mov2w
                      01302 ;;      1109 rIdx = r0x1054 
0151                  01303 _00132_DS_
                      01304         .line   132; "SW.c"     if ((SWs_Info[index].sw_samples[0] == SW_RELEASED_LEVEL) &&
0151   ???? ????      01305         BANKSEL r0x100C
0153   08??           01306         MOVF    r0x100C,W
                      01307 ;; >>> /home/sdcc-builder/build/sdcc-build/orig/sdcc/src/pic14/gen.c:5602:setup_fsr
0154   1283 1303      01308         BANKSEL FSR
0156   0084           01309         MOVWF   FSR
                      01310 ;;; /home/sdcc-builder/build/sdcc-build/orig/sdcc/src/pic14/gen.c:5553:SetIrp *{*
                      01311 ;; >>> /home/sdcc-builder/build/sdcc-build/orig/sdcc/src/pic14/gen.c:5580:SetIrp
0157   1383           01312         BCF     STATUS,7
                      01313 ;; >>> /home/sdcc-builder/build/sdcc-build/orig/sdcc/src/pic14/gen.c:5583:SetIrp
0158   ???? ????      01314         BANKSEL r0x100D
015A   18??           01315         BTFSC   r0x100D,0
                      01316 ;; >>> /home/sdcc-builder/build/sdcc-build/orig/sdcc/src/pic14/gen.c:5584:SetIrp
015B   1783           01317         BSF     STATUS,7
                      01318 ;; ***  genNearPointerGet  5988
                      01319 ;; >>> /home/sdcc-builder/build/sdcc-build/orig/sdcc/src/pic14/gen.c:5995:genNearPointerGet
015C   1283 1303      01320         BANKSEL INDF
015E   0800           01321         MOVF    INDF,W
                      01322 ;; >>> /home/sdcc-builder/build/sdcc-build/orig/sdcc/src/pic14/gen.c:6002:genNearPointerGet
                      01323 ;;      1109 rIdx = r0x1058 
015F   ???? ????      01324         BANKSEL r0x1010
0161   00??           01325         MOVWF   r0x1010
0162   3A01           01326         XORLW   0x01
                      01327 ;; >>> /home/sdcc-builder/build/sdcc-build/orig/sdcc/src/pic14/gen.c:3687:genCmpEq
0163   1D03           01328         BTFSS   STATUS,2
                      01329 ;; >>> /home/sdcc-builder/build/sdcc-build/orig/sdcc/src/pic14/gen.c:3690:genCmpEq
                      01330 ;; ***  popGetLabel  key=29, label offset 14
0164   2???           01331         GOTO    _00143_DS_
                      01332 ;;; /home/sdcc-builder/build/sdcc-build/orig/sdcc/src/pic14/gen.c:2316:resultRemat *{*
                      01333 ;;; /home/sdcc-builder/build/sdcc-build/orig/sdcc/src/pic14/gen.c:2316:resultRemat *{*
                      01334 ;; ***  genPlus  611
                      01335 ;;; /home/sdcc-builder/build/sdcc-build/orig/sdcc/src/pic14/genarith.c:612:genPlus *{*
                      01336 ;;      694 register type nRegs=2
                      01337 ;;      694 register type nRegs=2
                      01338 ;;      line = 618 result AOP_REG=r0x1058, size=2, left AOP_REG=r0x1054, size=2, right AOP_LIT=0x01, siz
                            e=1
                      01339 ;;; /home/sdcc-builder/build/sdcc-build/orig/sdcc/src/pic14/genarith.c:142:genPlusIncr *{*
                      01340 ;; ***  genPlusIncr  144
                      01341 ;;      result AOP_REG, left AOP_REG, right AOP_LIT
                      01342 ;;      genPlusIncr  156
                      01343 ;;      genPlusIncr  180
                      01344 ;;      adding lit to something. size 2
                      01345 ;;; /home/sdcc-builder/build/sdcc-build/orig/sdcc/src/pic14/genarith.c:269:genAddLit *{*
                      01346 ;; ***  genAddLit  270
gpasm-1.4.0 #1106 (Oct  6 2014) obj\Debug\SW.   3-31-2020  02:49:32         PAGE 27


LOC    OBJECT CODE    LINE  SOURCE TEXT
  VALUE

                      01347 ;;  left and result aren't same genAddLit  514
                      01348 ;; >>> /home/sdcc-builder/build/sdcc-build/orig/sdcc/src/pic14/genarith.c:546:genAddLit
                      01349         .line   133; "SW.c"     (SWs_Info[index].sw_samples[1] == SW_RELEASED_LEVEL))
0165   3001           01350         MOVLW   0x01
                      01351 ;; >>> /home/sdcc-builder/build/sdcc-build/orig/sdcc/src/pic14/genarith.c:547:genAddLit
                      01352 ;;      1109 rIdx = r0x1054 
0166   07??           01353         ADDWF   r0x100C,W
                      01354 ;;; /home/sdcc-builder/build/sdcc-build/orig/sdcc/src/pic14/genarith.c:253:emitMOVWF *{*
                      01355 ;; >>> /home/sdcc-builder/build/sdcc-build/orig/sdcc/src/pic14/genarith.c:257:emitMOVWF
                      01356 ;;      1109 rIdx = r0x1058 
0167   00??           01357         MOVWF   r0x1010
                      01358 ;; >>> /home/sdcc-builder/build/sdcc-build/orig/sdcc/src/pic14/genarith.c:584:genAddLit
                      01359 ;;      1109 rIdx = r0x1059 
0168   01??           01360         CLRF    r0x1011
                      01361 ;; >>> /home/sdcc-builder/build/sdcc-build/orig/sdcc/src/pic14/genarith.c:585:genAddLit
                      01362 ;;      1109 rIdx = r0x1059 
0169   0D??           01363         RLF     r0x1011,F
                      01364 ;; >>> /home/sdcc-builder/build/sdcc-build/orig/sdcc/src/pic14/genarith.c:586:genAddLit
                      01365 ;;      1109 rIdx = r0x1055 
016A   08??           01366         MOVF    r0x100D,W
                      01367 ;; >>> /home/sdcc-builder/build/sdcc-build/orig/sdcc/src/pic14/genarith.c:587:genAddLit
                      01368 ;;      1109 rIdx = r0x1059 
016B   07??           01369         ADDWF   r0x1011,F
                      01370 ;; ***  addSign  861
                      01371 ;;; /home/sdcc-builder/build/sdcc-build/orig/sdcc/src/pic14/genarith.c:862:addSign *{*
                      01372 ;;; /home/sdcc-builder/build/sdcc-build/orig/sdcc/src/pic14/gen.c:2316:resultRemat *{*
                      01373 ;;; /home/sdcc-builder/build/sdcc-build/orig/sdcc/src/pic14/gen.c:6162:genPointerGet *{*
                      01374 ;; ***  genPointerGet  6163
                      01375 ;;; /home/sdcc-builder/build/sdcc-build/orig/sdcc/src/pic14/gen.c:5944:genNearPointerGet *{*
                      01376 ;; ***  genNearPointerGet  5945
                      01377 ;;      694 register type nRegs=2
                      01378 ;; ***  genNearPointerGet  5961
                      01379 ;;      694 register type nRegs=1
                      01380 ;;; /home/sdcc-builder/build/sdcc-build/orig/sdcc/src/pic14/gen.c:1343:mov2w_op *{*
                      01381 ;; ***  mov2w  1381  offset=0
                      01382 ;; >>> /home/sdcc-builder/build/sdcc-build/orig/sdcc/src/pic14/gen.c:1386:mov2w
                      01383 ;;      1109 rIdx = r0x1058 
016C   08??           01384         MOVF    r0x1010,W
                      01385 ;; >>> /home/sdcc-builder/build/sdcc-build/orig/sdcc/src/pic14/gen.c:5602:setup_fsr
016D   1283 1303      01386         BANKSEL FSR
016F   0084           01387         MOVWF   FSR
                      01388 ;;; /home/sdcc-builder/build/sdcc-build/orig/sdcc/src/pic14/gen.c:5553:SetIrp *{*
                      01389 ;; >>> /home/sdcc-builder/build/sdcc-build/orig/sdcc/src/pic14/gen.c:5580:SetIrp
0170   1383           01390         BCF     STATUS,7
                      01391 ;; >>> /home/sdcc-builder/build/sdcc-build/orig/sdcc/src/pic14/gen.c:5583:SetIrp
0171   ???? ????      01392         BANKSEL r0x1011
0173   18??           01393         BTFSC   r0x1011,0
                      01394 ;; >>> /home/sdcc-builder/build/sdcc-build/orig/sdcc/src/pic14/gen.c:5584:SetIrp
0174   1783           01395         BSF     STATUS,7
                      01396 ;; ***  genNearPointerGet  5988
                      01397 ;; >>> /home/sdcc-builder/build/sdcc-build/orig/sdcc/src/pic14/gen.c:5995:genNearPointerGet
0175   1283 1303      01398         BANKSEL INDF
0177   0800           01399         MOVF    INDF,W
gpasm-1.4.0 #1106 (Oct  6 2014) obj\Debug\SW.   3-31-2020  02:49:32         PAGE 28


LOC    OBJECT CODE    LINE  SOURCE TEXT
  VALUE

                      01400 ;; >>> /home/sdcc-builder/build/sdcc-build/orig/sdcc/src/pic14/gen.c:6002:genNearPointerGet
                      01401 ;;      1109 rIdx = r0x105A 
0178   ???? ????      01402         BANKSEL r0x1012
017A   00??           01403         MOVWF   r0x1012
017B   3A01           01404         XORLW   0x01
                      01405 ;; >>> /home/sdcc-builder/build/sdcc-build/orig/sdcc/src/pic14/gen.c:3687:genCmpEq
017C   1D03           01406         BTFSS   STATUS,2
                      01407 ;; >>> /home/sdcc-builder/build/sdcc-build/orig/sdcc/src/pic14/gen.c:3690:genCmpEq
                      01408 ;; ***  popGetLabel  key=29, label offset 14
017D   2???           01409         GOTO    _00143_DS_
                      01410 ;;; /home/sdcc-builder/build/sdcc-build/orig/sdcc/src/pic14/gen.c:2316:resultRemat *{*
                      01411 ;;; /home/sdcc-builder/build/sdcc-build/orig/sdcc/src/pic14/gen.c:2316:resultRemat *{*
                      01412 ;;; /home/sdcc-builder/build/sdcc-build/orig/sdcc/src/pic14/gen.c:6686:genPointerSet *{*
                      01413 ;; ***  genPointerSet  6687
                      01414 ;;; /home/sdcc-builder/build/sdcc-build/orig/sdcc/src/pic14/gen.c:6505:genNearPointerSet *{*
                      01415 ;; ***  genNearPointerSet  6506
                      01416 ;;      694 register type nRegs=2
                      01417 ;; ***  genNearPointerSet  6521
                      01418 ;;      line = 6523 result AOP_REG=r0x1056, size=2, left -=-, size=0, right AOP_LIT=0x03, size=1
                      01419 ;;; /home/sdcc-builder/build/sdcc-build/orig/sdcc/src/pic14/gen.c:1343:mov2w_op *{*
                      01420 ;; ***  mov2w  1381  offset=0
                      01421 ;; >>> /home/sdcc-builder/build/sdcc-build/orig/sdcc/src/pic14/gen.c:1386:mov2w
                      01422 ;;      1109 rIdx = r0x1056 
                      01423         .line   135; "SW.c"     SWs_Info[index].sw_state = SW_PRE_RELEASED;
017E   08??           01424         MOVF    r0x100E,W
                      01425 ;; >>> /home/sdcc-builder/build/sdcc-build/orig/sdcc/src/pic14/gen.c:5602:setup_fsr
017F   1283 1303      01426         BANKSEL FSR
0181   0084           01427         MOVWF   FSR
                      01428 ;;; /home/sdcc-builder/build/sdcc-build/orig/sdcc/src/pic14/gen.c:5553:SetIrp *{*
                      01429 ;; >>> /home/sdcc-builder/build/sdcc-build/orig/sdcc/src/pic14/gen.c:5580:SetIrp
0182   1383           01430         BCF     STATUS,7
                      01431 ;; >>> /home/sdcc-builder/build/sdcc-build/orig/sdcc/src/pic14/gen.c:5583:SetIrp
0183   ???? ????      01432         BANKSEL r0x100F
0185   18??           01433         BTFSC   r0x100F,0
                      01434 ;; >>> /home/sdcc-builder/build/sdcc-build/orig/sdcc/src/pic14/gen.c:5584:SetIrp
0186   1783           01435         BSF     STATUS,7
                      01436 ;; ***  genNearPointerSet  6548
                      01437 ;; >>> /home/sdcc-builder/build/sdcc-build/orig/sdcc/src/pic14/gen.c:6560:genNearPointerSet
0187   3003           01438         MOVLW   0x03
                      01439 ;; >>> /home/sdcc-builder/build/sdcc-build/orig/sdcc/src/pic14/gen.c:6569:genNearPointerSet
0188   1283 1303      01440         BANKSEL INDF
018A   0080           01441         MOVWF   INDF
                      01442 ;; ***  genNearPointerSet  6577
                      01443 ;; ***  genNearPointerSet  6603
                      01444 ;;; /home/sdcc-builder/build/sdcc-build/orig/sdcc/src/pic14/gen.c:2316:resultRemat *{*
                      01445 ;;; /home/sdcc-builder/build/sdcc-build/orig/sdcc/src/pic14/gen.c:2778:genGoto *{*
                      01446 ;; >>> /home/sdcc-builder/build/sdcc-build/orig/sdcc/src/pic14/gen.c:2780:genGoto
                      01447 ;; ***  popGetLabel  key=29, label offset 14
                      01448         .line   141; "SW.c"     break;
018B   2???           01449         GOTO    _00143_DS_
                      01450 ;;; /home/sdcc-builder/build/sdcc-build/orig/sdcc/src/pic14/gen.c:2316:resultRemat *{*
                      01451 ;;; /home/sdcc-builder/build/sdcc-build/orig/sdcc/src/pic14/gen.c:2760:genLabel *{*
                      01452 ;; ***  genLabel  2763
gpasm-1.4.0 #1106 (Oct  6 2014) obj\Debug\SW.   3-31-2020  02:49:32         PAGE 29


LOC    OBJECT CODE    LINE  SOURCE TEXT
  VALUE

                      01453 ;;; /home/sdcc-builder/build/sdcc-build/orig/sdcc/src/pic14/gen.c:2316:resultRemat *{*
                      01454 ;; ***  genPlus  611
                      01455 ;;; /home/sdcc-builder/build/sdcc-build/orig/sdcc/src/pic14/genarith.c:612:genPlus *{*
                      01456 ;;      694 register type nRegs=2
                      01457 ;;      694 register type nRegs=2
                      01458 ;;      line = 618 result AOP_REG=r0x1054, size=2, left AOP_REG=r0x1054, size=2, right AOP_LIT=0x01, siz
                            e=1
                      01459 ;;; /home/sdcc-builder/build/sdcc-build/orig/sdcc/src/pic14/genarith.c:142:genPlusIncr *{*
                      01460 ;; ***  genPlusIncr  144
                      01461 ;;      result AOP_REG, left AOP_REG, right AOP_LIT
                      01462 ;;      genPlusIncr  156
                      01463 ;; >>> /home/sdcc-builder/build/sdcc-build/orig/sdcc/src/pic14/genarith.c:168:genPlusIncr
                      01464 ;;      1109 rIdx = r0x1054 
018C                  01465 _00136_DS_
                      01466         .line   144; "SW.c"     if (SWs_Info[index].sw_samples[1] == SW_RELEASED_LEVEL)
018C   ???? ????      01467         BANKSEL r0x100C
018E   0A??           01468         INCF    r0x100C,F
                      01469 ;; >>> /home/sdcc-builder/build/sdcc-build/orig/sdcc/src/pic14/genarith.c:172:genPlusIncr
018F   1903           01470         BTFSC   STATUS,2
                      01471 ;; >>> /home/sdcc-builder/build/sdcc-build/orig/sdcc/src/pic14/genarith.c:173:genPlusIncr
                      01472 ;;      1109 rIdx = r0x1055 
0190   0A??           01473         INCF    r0x100D,F
                      01474 ;;; /home/sdcc-builder/build/sdcc-build/orig/sdcc/src/pic14/gen.c:2316:resultRemat *{*
                      01475 ;;; /home/sdcc-builder/build/sdcc-build/orig/sdcc/src/pic14/gen.c:6162:genPointerGet *{*
                      01476 ;; ***  genPointerGet  6163
                      01477 ;;; /home/sdcc-builder/build/sdcc-build/orig/sdcc/src/pic14/gen.c:5944:genNearPointerGet *{*
                      01478 ;; ***  genNearPointerGet  5945
                      01479 ;;      694 register type nRegs=2
                      01480 ;; ***  genNearPointerGet  5961
                      01481 ;;      694 register type nRegs=1
                      01482 ;;; /home/sdcc-builder/build/sdcc-build/orig/sdcc/src/pic14/gen.c:1343:mov2w_op *{*
                      01483 ;; ***  mov2w  1381  offset=0
                      01484 ;; >>> /home/sdcc-builder/build/sdcc-build/orig/sdcc/src/pic14/gen.c:1386:mov2w
                      01485 ;;      1109 rIdx = r0x1054 
0191   08??           01486         MOVF    r0x100C,W
                      01487 ;; >>> /home/sdcc-builder/build/sdcc-build/orig/sdcc/src/pic14/gen.c:5602:setup_fsr
0192   1283 1303      01488         BANKSEL FSR
0194   0084           01489         MOVWF   FSR
                      01490 ;;; /home/sdcc-builder/build/sdcc-build/orig/sdcc/src/pic14/gen.c:5553:SetIrp *{*
                      01491 ;; >>> /home/sdcc-builder/build/sdcc-build/orig/sdcc/src/pic14/gen.c:5580:SetIrp
0195   1383           01492         BCF     STATUS,7
                      01493 ;; >>> /home/sdcc-builder/build/sdcc-build/orig/sdcc/src/pic14/gen.c:5583:SetIrp
0196   ???? ????      01494         BANKSEL r0x100D
0198   18??           01495         BTFSC   r0x100D,0
                      01496 ;; >>> /home/sdcc-builder/build/sdcc-build/orig/sdcc/src/pic14/gen.c:5584:SetIrp
0199   1783           01497         BSF     STATUS,7
                      01498 ;; ***  genNearPointerGet  5988
                      01499 ;; >>> /home/sdcc-builder/build/sdcc-build/orig/sdcc/src/pic14/gen.c:5995:genNearPointerGet
019A   1283 1303      01500         BANKSEL INDF
019C   0800           01501         MOVF    INDF,W
                      01502 ;; >>> /home/sdcc-builder/build/sdcc-build/orig/sdcc/src/pic14/gen.c:6002:genNearPointerGet
                      01503 ;;      1109 rIdx = r0x1058 
019D   ???? ????      01504         BANKSEL r0x1010
gpasm-1.4.0 #1106 (Oct  6 2014) obj\Debug\SW.   3-31-2020  02:49:32         PAGE 30


LOC    OBJECT CODE    LINE  SOURCE TEXT
  VALUE

019F   00??           01505         MOVWF   r0x1010
01A0   3A01           01506         XORLW   0x01
                      01507 ;; >>> /home/sdcc-builder/build/sdcc-build/orig/sdcc/src/pic14/gen.c:3687:genCmpEq
01A1   1D03           01508         BTFSS   STATUS,2
                      01509 ;; >>> /home/sdcc-builder/build/sdcc-build/orig/sdcc/src/pic14/gen.c:3690:genCmpEq
                      01510 ;; ***  popGetLabel  key=29, label offset 14
01A2   2???           01511         GOTO    _00143_DS_
                      01512 ;;; /home/sdcc-builder/build/sdcc-build/orig/sdcc/src/pic14/gen.c:2316:resultRemat *{*
                      01513 ;;; /home/sdcc-builder/build/sdcc-build/orig/sdcc/src/pic14/gen.c:2316:resultRemat *{*
                      01514 ;;; /home/sdcc-builder/build/sdcc-build/orig/sdcc/src/pic14/gen.c:6686:genPointerSet *{*
                      01515 ;; ***  genPointerSet  6687
                      01516 ;;; /home/sdcc-builder/build/sdcc-build/orig/sdcc/src/pic14/gen.c:6505:genNearPointerSet *{*
                      01517 ;; ***  genNearPointerSet  6506
                      01518 ;;      694 register type nRegs=2
                      01519 ;; ***  genNearPointerSet  6521
                      01520 ;;      line = 6523 result AOP_REG=r0x1056, size=2, left -=-, size=0, right AOP_LIT=0x00, size=1
                      01521 ;;; /home/sdcc-builder/build/sdcc-build/orig/sdcc/src/pic14/gen.c:1343:mov2w_op *{*
                      01522 ;; ***  mov2w  1381  offset=0
                      01523 ;; >>> /home/sdcc-builder/build/sdcc-build/orig/sdcc/src/pic14/gen.c:1386:mov2w
                      01524 ;;      1109 rIdx = r0x1056 
                      01525         .line   146; "SW.c"     SWs_Info[index].sw_state = SW_RELEASED;
01A3   08??           01526         MOVF    r0x100E,W
                      01527 ;; >>> /home/sdcc-builder/build/sdcc-build/orig/sdcc/src/pic14/gen.c:5602:setup_fsr
01A4   1283 1303      01528         BANKSEL FSR
01A6   0084           01529         MOVWF   FSR
                      01530 ;;; /home/sdcc-builder/build/sdcc-build/orig/sdcc/src/pic14/gen.c:5553:SetIrp *{*
                      01531 ;; >>> /home/sdcc-builder/build/sdcc-build/orig/sdcc/src/pic14/gen.c:5580:SetIrp
01A7   1383           01532         BCF     STATUS,7
                      01533 ;; >>> /home/sdcc-builder/build/sdcc-build/orig/sdcc/src/pic14/gen.c:5583:SetIrp
01A8   ???? ????      01534         BANKSEL r0x100F
01AA   18??           01535         BTFSC   r0x100F,0
                      01536 ;; >>> /home/sdcc-builder/build/sdcc-build/orig/sdcc/src/pic14/gen.c:5584:SetIrp
01AB   1783           01537         BSF     STATUS,7
                      01538 ;; ***  genNearPointerSet  6548
                      01539 ;; >>> /home/sdcc-builder/build/sdcc-build/orig/sdcc/src/pic14/gen.c:6560:genNearPointerSet
01AC   3000           01540         MOVLW   0x00
                      01541 ;; >>> /home/sdcc-builder/build/sdcc-build/orig/sdcc/src/pic14/gen.c:6569:genNearPointerSet
01AD   1283 1303      01542         BANKSEL INDF
01AF   0080           01543         MOVWF   INDF
                      01544 ;; ***  genNearPointerSet  6577
                      01545 ;; ***  genNearPointerSet  6603
                      01546 ;;; /home/sdcc-builder/build/sdcc-build/orig/sdcc/src/pic14/gen.c:2316:resultRemat *{*
                      01547 ;;; /home/sdcc-builder/build/sdcc-build/orig/sdcc/src/pic14/gen.c:2760:genLabel *{*
                      01548 ;; ***  genLabel  2763
                      01549 ;;; /home/sdcc-builder/build/sdcc-build/orig/sdcc/src/pic14/gen.c:2316:resultRemat *{*
                      01550 ;; ***  genPlus  611
                      01551 ;;; /home/sdcc-builder/build/sdcc-build/orig/sdcc/src/pic14/genarith.c:612:genPlus *{*
                      01552 ;;      694 register type nRegs=1
                      01553 ;;      575
                      01554 ;;      line = 618 result AOP_REG=r0x1053, size=1, left AOP_REG=r0x1053, size=1, right AOP_LIT=0x01, siz
                            e=1
                      01555 ;;; /home/sdcc-builder/build/sdcc-build/orig/sdcc/src/pic14/genarith.c:142:genPlusIncr *{*
                      01556 ;; ***  genPlusIncr  144
gpasm-1.4.0 #1106 (Oct  6 2014) obj\Debug\SW.   3-31-2020  02:49:32         PAGE 31


LOC    OBJECT CODE    LINE  SOURCE TEXT
  VALUE

                      01557 ;;      result AOP_REG, left AOP_REG, right AOP_LIT
                      01558 ;;      genPlusIncr  156
                      01559 ;; >>> /home/sdcc-builder/build/sdcc-build/orig/sdcc/src/pic14/genarith.c:168:genPlusIncr
                      01560 ;;      1109 rIdx = r0x1053 
01B0                  01561 _00143_DS_
                      01562         .line   86; "SW.c"      for (index = SW_PLUS; index < N_SWITCHES; index++)
01B0   ???? ????      01563         BANKSEL r0x100B
01B2   0A??           01564         INCF    r0x100B,F
                      01565 ;;; /home/sdcc-builder/build/sdcc-build/orig/sdcc/src/pic14/gen.c:2316:resultRemat *{*
                      01566 ;;; /home/sdcc-builder/build/sdcc-build/orig/sdcc/src/pic14/gen.c:3583:genCmpLt *{*
                      01567 ;; ***  genCmpLt  3584
                      01568 ;;      694 register type nRegs=1
                      01569 ;;; /home/sdcc-builder/build/sdcc-build/orig/sdcc/src/pic14/gen.c:3294:genCmp *{*
                      01570 ;;unsigned compare: left < lit(0x3=3), size=1
                      01571 ;; >>> /home/sdcc-builder/build/sdcc-build/orig/sdcc/src/pic14/gen.c:3265:pic14_mov2w_regOrLit
01B3   3003           01572         MOVLW   0x03
                      01573 ;; >>> /home/sdcc-builder/build/sdcc-build/orig/sdcc/src/pic14/gen.c:3432:genCmp
                      01574 ;;      1109 rIdx = r0x1053 
01B4   02??           01575         SUBWF   r0x100B,W
                      01576 ;;; /home/sdcc-builder/build/sdcc-build/orig/sdcc/src/pic14/gen.c:3237:genSkipc *{*
                      01577 ;; >>> /home/sdcc-builder/build/sdcc-build/orig/sdcc/src/pic14/gen.c:3244:genSkipc
01B5   1C03           01578         BTFSS   STATUS,0
                      01579 ;; >>> /home/sdcc-builder/build/sdcc-build/orig/sdcc/src/pic14/gen.c:3246:genSkipc
                      01580 ;; ***  popGetLabel  key=28, label offset 14
01B6   2???           01581         GOTO    _00142_DS_
                      01582 ;;genSkipc:3247: created from rifx:027A5DF4
                      01583 ;;; /home/sdcc-builder/build/sdcc-build/orig/sdcc/src/pic14/gen.c:2316:resultRemat *{*
                      01584 ;;; /home/sdcc-builder/build/sdcc-build/orig/sdcc/src/pic14/gen.c:2316:resultRemat *{*
                      01585 ;;; /home/sdcc-builder/build/sdcc-build/orig/sdcc/src/pic14/gen.c:2760:genLabel *{*
                      01586 ;; ***  genLabel  2763
                      01587 ;;; /home/sdcc-builder/build/sdcc-build/orig/sdcc/src/pic14/gen.c:2316:resultRemat *{*
                      01588 ;;; /home/sdcc-builder/build/sdcc-build/orig/sdcc/src/pic14/gen.c:2528:genEndFunction *{*
                      01589 ;; ***  genEndFunction  2530
01B7                  01590 _00144_DS_
01B7   0008           01591         RETURN  
                      01592 ; exit point of _SW_Update
                      01593 ;;; /home/sdcc-builder/build/sdcc-build/orig/sdcc/src/pic14/gen.c:7426:genpic14Code *{*
                      01594 
                      01595 ;***
                      01596 ;  pBlock Stats: dbName = C
                      01597 ;***
                      01598 ;entry:  _SW_GetState   ;Function start
                      01599 ; 2 exit points
                      01600 ;has an exit
                      01601 ;functions called:
                      01602 ;   __mulchar
                      01603 ;   __mulchar
                      01604 ;5 compiler assigned registers:
                      01605 ;   r0x1013
                      01606 ;   STK00
                      01607 ;   r0x1014
                      01608 ;   r0x1015
                      01609 ;   r0x1016
gpasm-1.4.0 #1106 (Oct  6 2014) obj\Debug\SW.   3-31-2020  02:49:32         PAGE 32


LOC    OBJECT CODE    LINE  SOURCE TEXT
  VALUE

                      01610 ;; Starting pCode block
                      01611 ;;; /home/sdcc-builder/build/sdcc-build/orig/sdcc/src/pic14/gen.c:2316:resultRemat *{*
                      01612 ;;; /home/sdcc-builder/build/sdcc-build/orig/sdcc/src/pic14/gen.c:2760:genLabel *{*
                      01613 ;; ***  genLabel  2763
                      01614 ;;; /home/sdcc-builder/build/sdcc-build/orig/sdcc/src/pic14/gen.c:2316:resultRemat *{*
                      01615 ;;; /home/sdcc-builder/build/sdcc-build/orig/sdcc/src/pic14/gen.c:2340:genFunction *{*
                      01616 ;; ***  genFunction  2342 curr label offset=4previous max_key=2 
01B8                  01617 _SW_GetState    ;Function start
                      01618 ; 2 exit points
                      01619 ;;; /home/sdcc-builder/build/sdcc-build/orig/sdcc/src/pic14/gen.c:2316:resultRemat *{*
                      01620 ;;; /home/sdcc-builder/build/sdcc-build/orig/sdcc/src/pic14/gen.c:7358:genReceive *{*
                      01621 ;; ***  genReceive  7359
                      01622 ;;      694 register type nRegs=1
                      01623 ;;; /home/sdcc-builder/build/sdcc-build/orig/sdcc/src/pic14/gen.c:1907:assignResultValue *{*
                      01624 ;; ***  assignResultValue  1909
                      01625 ;;      line = 1911 result -=-, size=0, left AOP_REG=r0x104E, size=1, right -=-, size=0
                      01626 ;; >>> /home/sdcc-builder/build/sdcc-build/orig/sdcc/src/pic14/gen.c:1393:movwf
                      01627 ;;      1109 rIdx = r0x104E 
                      01628         .line   64; "SW.c"      tSW_State SW_GetState(tSW sw)
01B8   ???? ????      01629         BANKSEL r0x1013
01BA   00??           01630         MOVWF   r0x1013
                      01631 ;;; /home/sdcc-builder/build/sdcc-build/orig/sdcc/src/pic14/gen.c:2316:resultRemat *{*
                      01632 ;;; /home/sdcc-builder/build/sdcc-build/orig/sdcc/src/pic14/gen.c:2316:resultRemat *{*
                      01633 ;;; /home/sdcc-builder/build/sdcc-build/orig/sdcc/src/pic14/gen.c:2878:genMult *{*
                      01634 ;; ***  genMult  2880
                      01635 ;;      694 register type nRegs=1
                      01636 ;;      694 register type nRegs=2
                      01637 ;;      line = 2886 result AOP_REG=r0x104F, size=2, left AOP_REG=r0x104E, size=1, right AOP_LIT=0x03, si
                            ze=1
                      01638 ;;; /home/sdcc-builder/build/sdcc-build/orig/sdcc/src/pic14/gen.c:2816:genMultOneByte *{*
                      01639 ;; ***  genMultOneByte  2818
                      01640 ;;      line = 2819 result AOP_REG=r0x104F, size=2, left AOP_REG=r0x104E, size=1, right AOP_LIT=0x03, si
                            ze=1
                      01641 ;;      line = 2820, signs: result AOP_REG=u, left AOP_REG=u, right AOP_LIT=u
                      01642 ;; ***  mov2w  1381  offset=0
                      01643 ;; >>> /home/sdcc-builder/build/sdcc-build/orig/sdcc/src/pic14/gen.c:1384:mov2w
                      01644         .line   67; "SW.c"      return SWs_Info[sw].sw_state;
01BB   3003           01645         MOVLW   0x03
                      01646 ;; >>> /home/sdcc-builder/build/sdcc-build/orig/sdcc/src/pic14/gen.c:2840:genMultOneByte
                      01647 ;; ***  popRegFromIdx,1042  , rIdx=0x7f
01BC   00??           01648         MOVWF   STK00
                      01649 ;; ***  mov2w  1381  offset=0
                      01650 ;; >>> /home/sdcc-builder/build/sdcc-build/orig/sdcc/src/pic14/gen.c:1386:mov2w
                      01651 ;;      1109 rIdx = r0x104E 
01BD   08??           01652         MOVF    r0x1013,W
                      01653 ;; >>> /home/sdcc-builder/build/sdcc-build/orig/sdcc/src/pic14/gen.c:1433:call_libraryfunc
01BE   ???? ????      01654         PAGESEL __mulchar
                      01655 ;; >>> /home/sdcc-builder/build/sdcc-build/orig/sdcc/src/pic14/gen.c:1435:call_libraryfunc
01C0   2???           01656         CALL    __mulchar
                      01657 ;; >>> /home/sdcc-builder/build/sdcc-build/orig/sdcc/src/pic14/gen.c:1437:call_libraryfunc
01C1   ???? ????      01658         PAGESEL $
                      01659 ;; >>> /home/sdcc-builder/build/sdcc-build/orig/sdcc/src/pic14/gen.c:1393:movwf
                      01660 ;;      1109 rIdx = r0x104F 
gpasm-1.4.0 #1106 (Oct  6 2014) obj\Debug\SW.   3-31-2020  02:49:32         PAGE 33


LOC    OBJECT CODE    LINE  SOURCE TEXT
  VALUE

01C3   ???? ????      01661         BANKSEL r0x1014
01C5   00??           01662         MOVWF   r0x1014
                      01663 ;; ***  addSign  861
                      01664 ;;; /home/sdcc-builder/build/sdcc-build/orig/sdcc/src/pic14/genarith.c:862:addSign *{*
                      01665 ;; >>> /home/sdcc-builder/build/sdcc-build/orig/sdcc/src/pic14/genarith.c:881:addSign
                      01666 ;;      1109 rIdx = r0x1050 
01C6   01??           01667         CLRF    r0x1015
                      01668 ;;; /home/sdcc-builder/build/sdcc-build/orig/sdcc/src/pic14/gen.c:2316:resultRemat *{*
                      01669 ;; ***  genPlus  611
                      01670 ;;; /home/sdcc-builder/build/sdcc-build/orig/sdcc/src/pic14/genarith.c:612:genPlus *{*
                      01671 ;;      613
                      01672 ;;      aopForRemat 392
                      01673 ;;      418: rname _SWs_Info, val 0, const = 0
                      01674 ;;      694 register type nRegs=2
                      01675 ;;      694 register type nRegs=2
                      01676 ;;      833: aopGet AOP_PCODE type PO_IMMEDIATE
                      01677 ;;      _SWs_Info
                      01678 ;;      line = 618 result AOP_REG=r0x104E, size=2, left AOP_PCODE=_SWs_Info, size=2, right AOP_REG=r0x10
                            4F, size=2
                      01679 ;;; /home/sdcc-builder/build/sdcc-build/orig/sdcc/src/pic14/genarith.c:142:genPlusIncr *{*
                      01680 ;; ***  genPlusIncr  144
                      01681 ;;      result AOP_REG, left AOP_PCODE, right AOP_REG
                      01682 ;; ***  genPlus  717
                      01683 ;;      833: aopGet AOP_PCODE type PO_IMMEDIATE
                      01684 ;;      _SWs_Info
                      01685 ;; >>> /home/sdcc-builder/build/sdcc-build/orig/sdcc/src/pic14/genarith.c:726:genPlus
                      01686 ;;      1109 rIdx = r0x104F 
01C7   08??           01687         MOVF    r0x1014,W
                      01688 ;; >>> /home/sdcc-builder/build/sdcc-build/orig/sdcc/src/pic14/genarith.c:735:genPlus
01C8   3E??           01689         ADDLW   (_SWs_Info + 0)
                      01690 ;; >>> /home/sdcc-builder/build/sdcc-build/orig/sdcc/src/pic14/genarith.c:736:genPlus
                      01691 ;;      1109 rIdx = r0x104E 
01C9   00??           01692         MOVWF   r0x1013
                      01693 ;; >>> /home/sdcc-builder/build/sdcc-build/orig/sdcc/src/pic14/genarith.c:771:genPlus
01CA   30??           01694         MOVLW   high (_SWs_Info + 0)
                      01695 ;; >>> /home/sdcc-builder/build/sdcc-build/orig/sdcc/src/pic14/genarith.c:772:genPlus
                      01696 ;;      1109 rIdx = r0x1051 
01CB   00??           01697         MOVWF   r0x1016
                      01698 ;; >>> /home/sdcc-builder/build/sdcc-build/orig/sdcc/src/pic14/genarith.c:774:genPlus
                      01699 ;;      1109 rIdx = r0x1050 
01CC   3000           01700         MOVLW   0x00
                      01701 ;; >>> /home/sdcc-builder/build/sdcc-build/orig/sdcc/src/pic14/genarith.c:775:genPlus
01CD   1803           01702         BTFSC   STATUS,0
                      01703 ;; >>> /home/sdcc-builder/build/sdcc-build/orig/sdcc/src/pic14/genarith.c:776:genPlus
                      01704 ;;      1109 rIdx = r0x1050 
01CE   0F??           01705         INCFSZ  r0x1015,W
                      01706 ;; >>> /home/sdcc-builder/build/sdcc-build/orig/sdcc/src/pic14/genarith.c:777:genPlus
                      01707 ;;      1109 rIdx = r0x1051 
01CF   07??           01708         ADDWF   r0x1016,F
                      01709 ;;; /home/sdcc-builder/build/sdcc-build/orig/sdcc/src/pic14/gen.c:2316:resultRemat *{*
                      01710 ;; ***  genPlus  611
                      01711 ;;; /home/sdcc-builder/build/sdcc-build/orig/sdcc/src/pic14/genarith.c:612:genPlus *{*
                      01712 ;;      694 register type nRegs=2
gpasm-1.4.0 #1106 (Oct  6 2014) obj\Debug\SW.   3-31-2020  02:49:32         PAGE 34


LOC    OBJECT CODE    LINE  SOURCE TEXT
  VALUE

                      01713 ;;      694 register type nRegs=2
                      01714 ;;      line = 618 result AOP_REG=r0x104E, size=2, left AOP_REG=r0x104E, size=2, right AOP_LIT=0x02, siz
                            e=1
                      01715 ;;; /home/sdcc-builder/build/sdcc-build/orig/sdcc/src/pic14/genarith.c:142:genPlusIncr *{*
                      01716 ;; ***  genPlusIncr  144
                      01717 ;;      result AOP_REG, left AOP_REG, right AOP_LIT
                      01718 ;;      genPlusIncr  156
                      01719 ;;      genPlusIncr  180
                      01720 ;;      adding lit to something. size 2
                      01721 ;;; /home/sdcc-builder/build/sdcc-build/orig/sdcc/src/pic14/genarith.c:269:genAddLit *{*
                      01722 ;; ***  genAddLit  270
                      01723 ;; hi = 0       genAddLit  328
                      01724 ;; >>> /home/sdcc-builder/build/sdcc-build/orig/sdcc/src/pic14/genarith.c:344:genAddLit
01D0   3002           01725         MOVLW   0x02
                      01726 ;; >>> /home/sdcc-builder/build/sdcc-build/orig/sdcc/src/pic14/genarith.c:345:genAddLit
                      01727 ;;      1109 rIdx = r0x104E 
01D1   07??           01728         ADDWF   r0x1013,F
                      01729 ;; >>> /home/sdcc-builder/build/sdcc-build/orig/sdcc/src/pic14/genarith.c:346:genAddLit
01D2   1803           01730         BTFSC   STATUS,0
                      01731 ;; >>> /home/sdcc-builder/build/sdcc-build/orig/sdcc/src/pic14/genarith.c:347:genAddLit
                      01732 ;;      1109 rIdx = r0x1051 
01D3   0A??           01733         INCF    r0x1016,F
                      01734 ;; ***  addSign  861
                      01735 ;;; /home/sdcc-builder/build/sdcc-build/orig/sdcc/src/pic14/genarith.c:862:addSign *{*
                      01736 ;;; /home/sdcc-builder/build/sdcc-build/orig/sdcc/src/pic14/gen.c:2316:resultRemat *{*
                      01737 ;;; /home/sdcc-builder/build/sdcc-build/orig/sdcc/src/pic14/gen.c:6162:genPointerGet *{*
                      01738 ;; ***  genPointerGet  6163
                      01739 ;;; /home/sdcc-builder/build/sdcc-build/orig/sdcc/src/pic14/gen.c:5944:genNearPointerGet *{*
                      01740 ;; ***  genNearPointerGet  5945
                      01741 ;;      694 register type nRegs=2
                      01742 ;; ***  genNearPointerGet  5961
                      01743 ;;      694 register type nRegs=1
                      01744 ;;; /home/sdcc-builder/build/sdcc-build/orig/sdcc/src/pic14/gen.c:1343:mov2w_op *{*
                      01745 ;; ***  mov2w  1381  offset=0
                      01746 ;; >>> /home/sdcc-builder/build/sdcc-build/orig/sdcc/src/pic14/gen.c:1386:mov2w
                      01747 ;;      1109 rIdx = r0x104E 
01D4   08??           01748         MOVF    r0x1013,W
                      01749 ;; >>> /home/sdcc-builder/build/sdcc-build/orig/sdcc/src/pic14/gen.c:5602:setup_fsr
01D5   1283 1303      01750         BANKSEL FSR
01D7   0084           01751         MOVWF   FSR
                      01752 ;;; /home/sdcc-builder/build/sdcc-build/orig/sdcc/src/pic14/gen.c:5553:SetIrp *{*
                      01753 ;; >>> /home/sdcc-builder/build/sdcc-build/orig/sdcc/src/pic14/gen.c:5580:SetIrp
01D8   1383           01754         BCF     STATUS,7
                      01755 ;; >>> /home/sdcc-builder/build/sdcc-build/orig/sdcc/src/pic14/gen.c:5583:SetIrp
01D9   ???? ????      01756         BANKSEL r0x1016
01DB   18??           01757         BTFSC   r0x1016,0
                      01758 ;; >>> /home/sdcc-builder/build/sdcc-build/orig/sdcc/src/pic14/gen.c:5584:SetIrp
01DC   1783           01759         BSF     STATUS,7
                      01760 ;; ***  genNearPointerGet  5988
                      01761 ;; >>> /home/sdcc-builder/build/sdcc-build/orig/sdcc/src/pic14/gen.c:5995:genNearPointerGet
01DD   1283 1303      01762         BANKSEL INDF
01DF   0800           01763         MOVF    INDF,W
                      01764 ;; >>> /home/sdcc-builder/build/sdcc-build/orig/sdcc/src/pic14/gen.c:6002:genNearPointerGet
gpasm-1.4.0 #1106 (Oct  6 2014) obj\Debug\SW.   3-31-2020  02:49:32         PAGE 35


LOC    OBJECT CODE    LINE  SOURCE TEXT
  VALUE

                      01765 ;;      1109 rIdx = r0x104F 
01E0   ???? ????      01766         BANKSEL r0x1014
01E2   00??           01767         MOVWF   r0x1014
01E3   0008           01768         RETURN  
                      01769 ; exit point of _SW_GetState
                      01770 ;;; /home/sdcc-builder/build/sdcc-build/orig/sdcc/src/pic14/gen.c:7426:genpic14Code *{*
                      01771 
                      01772 ;***
                      01773 ;  pBlock Stats: dbName = C
                      01774 ;***
                      01775 ;entry:  _SW_Init       ;Function start
                      01776 ; 2 exit points
                      01777 ;has an exit
                      01778 ;functions called:
                      01779 ;   __mulchar
                      01780 ;   __mulchar
                      01781 ;6 compiler assigned registers:
                      01782 ;   r0x1017
                      01783 ;   STK00
                      01784 ;   r0x1018
                      01785 ;   r0x1019
                      01786 ;   r0x101A
                      01787 ;   r0x101B
                      01788 ;; Starting pCode block
                      01789 ;;; /home/sdcc-builder/build/sdcc-build/orig/sdcc/src/pic14/gen.c:2316:resultRemat *{*
                      01790 ;;; /home/sdcc-builder/build/sdcc-build/orig/sdcc/src/pic14/gen.c:2760:genLabel *{*
                      01791 ;; ***  genLabel  2763
                      01792 ;;; /home/sdcc-builder/build/sdcc-build/orig/sdcc/src/pic14/gen.c:2316:resultRemat *{*
                      01793 ;;; /home/sdcc-builder/build/sdcc-build/orig/sdcc/src/pic14/gen.c:2340:genFunction *{*
                      01794 ;; ***  genFunction  2342 curr label offset=0previous max_key=0 
01E4                  01795 _SW_Init        ;Function start
                      01796 ; 2 exit points
                      01797 ;;; /home/sdcc-builder/build/sdcc-build/orig/sdcc/src/pic14/gen.c:2316:resultRemat *{*
                      01798 ;;; /home/sdcc-builder/build/sdcc-build/orig/sdcc/src/pic14/gen.c:7120:genCast *{*
                      01799 ;; ***  genCast  7121
                      01800 ;; ***  aopForSym 315
                      01801 ;;      327 sym->rname = _TRISB, size = 1
                      01802 ;;      694 register type nRegs=1
                      01803 ;;      line = 7129 result AOP_REG=r0x1048, size=1, left -=-, size=0, right AOP_DIR=_TRISB, size=1
                      01804 ;; ***  genCast  7253
                      01805 ;; >>> /home/sdcc-builder/build/sdcc-build/orig/sdcc/src/pic14/gen.c:7277:genCast
                      01806 ;;      1009
                      01807 ;;      1028  _TRISB   offset=0
                      01808         .line   46; "SW.c"      GPIO_InitPortPin(SW_PLUS_PORT_CR, SW_PLUS_PIN, GPIO_IN);
01E4   ???? ????      01809         BANKSEL _TRISB
01E6   08??           01810         MOVF    _TRISB,W
                      01811 ;; >>> /home/sdcc-builder/build/sdcc-build/orig/sdcc/src/pic14/gen.c:7278:genCast
                      01812 ;;      1109 rIdx = r0x1048 
01E7   ???? ????      01813         BANKSEL r0x1017
01E9   00??           01814         MOVWF   r0x1017
                      01815 ;;; /home/sdcc-builder/build/sdcc-build/orig/sdcc/src/pic14/gen.c:2316:resultRemat *{*
                      01816 ;;; /home/sdcc-builder/build/sdcc-build/orig/sdcc/src/pic14/gen.c:3919:genAnd *{*
                      01817 ;; ***  genAnd  3920
gpasm-1.4.0 #1106 (Oct  6 2014) obj\Debug\SW.   3-31-2020  02:49:32         PAGE 36


LOC    OBJECT CODE    LINE  SOURCE TEXT
  VALUE

                      01818 ;;      694 register type nRegs=1
                      01819 ;;      694 register type nRegs=1
                      01820 ;;      line = 3955 result AOP_REG=r0x1048, size=1, left AOP_REG=r0x1048, size=1, right AOP_LIT=0xfe, si
                            ze=1
                      01821 ;; >>> /home/sdcc-builder/build/sdcc-build/orig/sdcc/src/pic14/gen.c:4122:genAnd
01EA   10??           01822         BCF     r0x1017,0
                      01823 ;;; /home/sdcc-builder/build/sdcc-build/orig/sdcc/src/pic14/gen.c:2316:resultRemat *{*
                      01824 ;;; /home/sdcc-builder/build/sdcc-build/orig/sdcc/src/pic14/gen.c:4220:genOr *{*
                      01825 ;; ***  genOr  4221
                      01826 ;;      694 register type nRegs=1
                      01827 ;; ***  aopForSym 315
                      01828 ;;      327 sym->rname = _TRISB, size = 1
                      01829 ;;      line = 4227 result AOP_DIR=_TRISB, size=1, left AOP_REG=r0x1048, size=1, right AOP_LIT=0x01, siz
                            e=1
                      01830 ;;      line = 4253 result AOP_DIR=_TRISB, size=1, left AOP_REG=r0x1048, size=1, right AOP_LIT=0x01, siz
                            e=1
                      01831 ;; >>> /home/sdcc-builder/build/sdcc-build/orig/sdcc/src/pic14/gen.c:4470:genOr
01EB   3001           01832         MOVLW   0x01
                      01833 ;; >>> /home/sdcc-builder/build/sdcc-build/orig/sdcc/src/pic14/gen.c:4471:genOr
                      01834 ;;      1109 rIdx = r0x1048 
01EC   04??           01835         IORWF   r0x1017,W
                      01836 ;; >>> /home/sdcc-builder/build/sdcc-build/orig/sdcc/src/pic14/gen.c:4472:genOr
                      01837 ;;      1009
                      01838 ;;      1028  _TRISB   offset=0
01ED   ???? ????      01839         BANKSEL _TRISB
01EF   00??           01840         MOVWF   _TRISB
                      01841 ;;; /home/sdcc-builder/build/sdcc-build/orig/sdcc/src/pic14/gen.c:2316:resultRemat *{*
                      01842 ;;; /home/sdcc-builder/build/sdcc-build/orig/sdcc/src/pic14/gen.c:7120:genCast *{*
                      01843 ;; ***  genCast  7121
                      01844 ;; ***  aopForSym 315
                      01845 ;;      327 sym->rname = _TRISB, size = 1
                      01846 ;;      694 register type nRegs=1
                      01847 ;;      line = 7129 result AOP_REG=r0x1048, size=1, left -=-, size=0, right AOP_DIR=_TRISB, size=1
                      01848 ;; ***  genCast  7253
                      01849 ;; >>> /home/sdcc-builder/build/sdcc-build/orig/sdcc/src/pic14/gen.c:7277:genCast
                      01850 ;;      1009
                      01851 ;;      1028  _TRISB   offset=0
                      01852         .line   47; "SW.c"      GPIO_InitPortPin(SW_MINUS_PORT_CR, SW_MINUS_PIN, GPIO_IN);
01F0   08??           01853         MOVF    _TRISB,W
                      01854 ;; >>> /home/sdcc-builder/build/sdcc-build/orig/sdcc/src/pic14/gen.c:7278:genCast
                      01855 ;;      1109 rIdx = r0x1048 
01F1   ???? ????      01856         BANKSEL r0x1017
01F3   00??           01857         MOVWF   r0x1017
                      01858 ;;; /home/sdcc-builder/build/sdcc-build/orig/sdcc/src/pic14/gen.c:2316:resultRemat *{*
                      01859 ;;; /home/sdcc-builder/build/sdcc-build/orig/sdcc/src/pic14/gen.c:3919:genAnd *{*
                      01860 ;; ***  genAnd  3920
                      01861 ;;      694 register type nRegs=1
                      01862 ;;      694 register type nRegs=1
                      01863 ;;      line = 3955 result AOP_REG=r0x1048, size=1, left AOP_REG=r0x1048, size=1, right AOP_LIT=0xfd, si
                            ze=1
                      01864 ;; >>> /home/sdcc-builder/build/sdcc-build/orig/sdcc/src/pic14/gen.c:4122:genAnd
01F4   10??           01865         BCF     r0x1017,1
                      01866 ;;; /home/sdcc-builder/build/sdcc-build/orig/sdcc/src/pic14/gen.c:2316:resultRemat *{*
gpasm-1.4.0 #1106 (Oct  6 2014) obj\Debug\SW.   3-31-2020  02:49:32         PAGE 37


LOC    OBJECT CODE    LINE  SOURCE TEXT
  VALUE

                      01867 ;;; /home/sdcc-builder/build/sdcc-build/orig/sdcc/src/pic14/gen.c:4220:genOr *{*
                      01868 ;; ***  genOr  4221
                      01869 ;;      694 register type nRegs=1
                      01870 ;; ***  aopForSym 315
                      01871 ;;      327 sym->rname = _TRISB, size = 1
                      01872 ;;      line = 4227 result AOP_DIR=_TRISB, size=1, left AOP_REG=r0x1048, size=1, right AOP_LIT=0x02, siz
                            e=1
                      01873 ;;      line = 4253 result AOP_DIR=_TRISB, size=1, left AOP_REG=r0x1048, size=1, right AOP_LIT=0x02, siz
                            e=1
                      01874 ;; >>> /home/sdcc-builder/build/sdcc-build/orig/sdcc/src/pic14/gen.c:4470:genOr
01F5   3002           01875         MOVLW   0x02
                      01876 ;; >>> /home/sdcc-builder/build/sdcc-build/orig/sdcc/src/pic14/gen.c:4471:genOr
                      01877 ;;      1109 rIdx = r0x1048 
01F6   04??           01878         IORWF   r0x1017,W
                      01879 ;; >>> /home/sdcc-builder/build/sdcc-build/orig/sdcc/src/pic14/gen.c:4472:genOr
                      01880 ;;      1009
                      01881 ;;      1028  _TRISB   offset=0
01F7   ???? ????      01882         BANKSEL _TRISB
01F9   00??           01883         MOVWF   _TRISB
                      01884 ;;; /home/sdcc-builder/build/sdcc-build/orig/sdcc/src/pic14/gen.c:2316:resultRemat *{*
                      01885 ;;; /home/sdcc-builder/build/sdcc-build/orig/sdcc/src/pic14/gen.c:7120:genCast *{*
                      01886 ;; ***  genCast  7121
                      01887 ;; ***  aopForSym 315
                      01888 ;;      327 sym->rname = _TRISB, size = 1
                      01889 ;;      694 register type nRegs=1
                      01890 ;;      line = 7129 result AOP_REG=r0x1048, size=1, left -=-, size=0, right AOP_DIR=_TRISB, size=1
                      01891 ;; ***  genCast  7253
                      01892 ;; >>> /home/sdcc-builder/build/sdcc-build/orig/sdcc/src/pic14/gen.c:7277:genCast
                      01893 ;;      1009
                      01894 ;;      1028  _TRISB   offset=0
                      01895         .line   48; "SW.c"      GPIO_InitPortPin(SW_D_PORT_CR, SW_D_PIN, GPIO_IN);
01FA   08??           01896         MOVF    _TRISB,W
                      01897 ;; >>> /home/sdcc-builder/build/sdcc-build/orig/sdcc/src/pic14/gen.c:7278:genCast
                      01898 ;;      1109 rIdx = r0x1048 
01FB   ???? ????      01899         BANKSEL r0x1017
01FD   00??           01900         MOVWF   r0x1017
                      01901 ;;; /home/sdcc-builder/build/sdcc-build/orig/sdcc/src/pic14/gen.c:2316:resultRemat *{*
                      01902 ;;; /home/sdcc-builder/build/sdcc-build/orig/sdcc/src/pic14/gen.c:3919:genAnd *{*
                      01903 ;; ***  genAnd  3920
                      01904 ;;      694 register type nRegs=1
                      01905 ;;      694 register type nRegs=1
                      01906 ;;      line = 3955 result AOP_REG=r0x1048, size=1, left AOP_REG=r0x1048, size=1, right AOP_LIT=0xfb, si
                            ze=1
                      01907 ;; >>> /home/sdcc-builder/build/sdcc-build/orig/sdcc/src/pic14/gen.c:4122:genAnd
01FE   11??           01908         BCF     r0x1017,2
                      01909 ;;; /home/sdcc-builder/build/sdcc-build/orig/sdcc/src/pic14/gen.c:2316:resultRemat *{*
                      01910 ;;; /home/sdcc-builder/build/sdcc-build/orig/sdcc/src/pic14/gen.c:4220:genOr *{*
                      01911 ;; ***  genOr  4221
                      01912 ;;      694 register type nRegs=1
                      01913 ;; ***  aopForSym 315
                      01914 ;;      327 sym->rname = _TRISB, size = 1
                      01915 ;;      line = 4227 result AOP_DIR=_TRISB, size=1, left AOP_REG=r0x1048, size=1, right AOP_LIT=0x04, siz
                            e=1
gpasm-1.4.0 #1106 (Oct  6 2014) obj\Debug\SW.   3-31-2020  02:49:32         PAGE 38


LOC    OBJECT CODE    LINE  SOURCE TEXT
  VALUE

                      01916 ;;      line = 4253 result AOP_DIR=_TRISB, size=1, left AOP_REG=r0x1048, size=1, right AOP_LIT=0x04, siz
                            e=1
                      01917 ;; >>> /home/sdcc-builder/build/sdcc-build/orig/sdcc/src/pic14/gen.c:4470:genOr
01FF   3004           01918         MOVLW   0x04
                      01919 ;; >>> /home/sdcc-builder/build/sdcc-build/orig/sdcc/src/pic14/gen.c:4471:genOr
                      01920 ;;      1109 rIdx = r0x1048 
0200   04??           01921         IORWF   r0x1017,W
                      01922 ;; >>> /home/sdcc-builder/build/sdcc-build/orig/sdcc/src/pic14/gen.c:4472:genOr
                      01923 ;;      1009
                      01924 ;;      1028  _TRISB   offset=0
0201   ???? ????      01925         BANKSEL _TRISB
0203   00??           01926         MOVWF   _TRISB
                      01927 ;;; /home/sdcc-builder/build/sdcc-build/orig/sdcc/src/pic14/gen.c:2316:resultRemat *{*
                      01928 ;;; /home/sdcc-builder/build/sdcc-build/orig/sdcc/src/pic14/gen.c:2316:resultRemat *{*
                      01929 ;;; /home/sdcc-builder/build/sdcc-build/orig/sdcc/src/pic14/gen.c:6927:genAssign *{*
                      01930 ;; ***  genAssign  6928
                      01931 ;;      694 register type nRegs=1
                      01932 ;;      line = 6937 result AOP_REG=r0x1048, size=1, left -=-, size=0, right AOP_LIT=0x00, size=1
                      01933 ;; ***  genAssign  7023
                      01934 ;; >>> /home/sdcc-builder/build/sdcc-build/orig/sdcc/src/pic14/gen.c:7035:genAssign
                      01935 ;;      1109 rIdx = r0x1048 
                      01936         .line   51; "SW.c"      for (index = SW_PLUS; index < N_SWITCHES; index++)
0204   ???? ????      01937         BANKSEL r0x1017
0206   01??           01938         CLRF    r0x1017
                      01939 ;;; /home/sdcc-builder/build/sdcc-build/orig/sdcc/src/pic14/gen.c:2316:resultRemat *{*
                      01940 ;;; /home/sdcc-builder/build/sdcc-build/orig/sdcc/src/pic14/gen.c:2760:genLabel *{*
                      01941 ;; ***  genLabel  2763
                      01942 ;;; /home/sdcc-builder/build/sdcc-build/orig/sdcc/src/pic14/gen.c:2316:resultRemat *{*
                      01943 ;;; /home/sdcc-builder/build/sdcc-build/orig/sdcc/src/pic14/gen.c:2878:genMult *{*
                      01944 ;; ***  genMult  2880
                      01945 ;;      694 register type nRegs=1
                      01946 ;;      694 register type nRegs=2
                      01947 ;;      line = 2886 result AOP_REG=r0x1049, size=2, left AOP_REG=r0x1048, size=1, right AOP_LIT=0x03, si
                            ze=1
                      01948 ;;; /home/sdcc-builder/build/sdcc-build/orig/sdcc/src/pic14/gen.c:2816:genMultOneByte *{*
                      01949 ;; ***  genMultOneByte  2818
                      01950 ;;      line = 2819 result AOP_REG=r0x1049, size=2, left AOP_REG=r0x1048, size=1, right AOP_LIT=0x03, si
                            ze=1
                      01951 ;;      line = 2820, signs: result AOP_REG=u, left AOP_REG=u, right AOP_LIT=u
                      01952 ;; ***  mov2w  1381  offset=0
                      01953 ;; >>> /home/sdcc-builder/build/sdcc-build/orig/sdcc/src/pic14/gen.c:1384:mov2w
0207                  01954 _00106_DS_
                      01955         .line   54; "SW.c"      SWs_Info[index].sw_samples[0] = SW_RELEASED_LEVEL;
0207   3003           01956         MOVLW   0x03
                      01957 ;; >>> /home/sdcc-builder/build/sdcc-build/orig/sdcc/src/pic14/gen.c:2840:genMultOneByte
                      01958 ;; ***  popRegFromIdx,1042  , rIdx=0x7f
0208   00??           01959         MOVWF   STK00
                      01960 ;; ***  mov2w  1381  offset=0
                      01961 ;; >>> /home/sdcc-builder/build/sdcc-build/orig/sdcc/src/pic14/gen.c:1386:mov2w
                      01962 ;;      1109 rIdx = r0x1048 
0209   ???? ????      01963         BANKSEL r0x1017
020B   08??           01964         MOVF    r0x1017,W
                      01965 ;; >>> /home/sdcc-builder/build/sdcc-build/orig/sdcc/src/pic14/gen.c:1433:call_libraryfunc
gpasm-1.4.0 #1106 (Oct  6 2014) obj\Debug\SW.   3-31-2020  02:49:32         PAGE 39


LOC    OBJECT CODE    LINE  SOURCE TEXT
  VALUE

020C   ???? ????      01966         PAGESEL __mulchar
                      01967 ;; >>> /home/sdcc-builder/build/sdcc-build/orig/sdcc/src/pic14/gen.c:1435:call_libraryfunc
020E   2???           01968         CALL    __mulchar
                      01969 ;; >>> /home/sdcc-builder/build/sdcc-build/orig/sdcc/src/pic14/gen.c:1437:call_libraryfunc
020F   ???? ????      01970         PAGESEL $
                      01971 ;; >>> /home/sdcc-builder/build/sdcc-build/orig/sdcc/src/pic14/gen.c:1393:movwf
                      01972 ;;      1109 rIdx = r0x1049 
0211   ???? ????      01973         BANKSEL r0x1018
0213   00??           01974         MOVWF   r0x1018
                      01975 ;; ***  addSign  861
                      01976 ;;; /home/sdcc-builder/build/sdcc-build/orig/sdcc/src/pic14/genarith.c:862:addSign *{*
                      01977 ;; >>> /home/sdcc-builder/build/sdcc-build/orig/sdcc/src/pic14/genarith.c:881:addSign
                      01978 ;;      1109 rIdx = r0x104A 
0214   01??           01979         CLRF    r0x1019
                      01980 ;;; /home/sdcc-builder/build/sdcc-build/orig/sdcc/src/pic14/gen.c:2316:resultRemat *{*
                      01981 ;; ***  genPlus  611
                      01982 ;;; /home/sdcc-builder/build/sdcc-build/orig/sdcc/src/pic14/genarith.c:612:genPlus *{*
                      01983 ;;      613
                      01984 ;;      aopForRemat 392
                      01985 ;;      418: rname _SWs_Info, val 0, const = 0
                      01986 ;;      694 register type nRegs=2
                      01987 ;;      694 register type nRegs=2
                      01988 ;;      833: aopGet AOP_PCODE type PO_IMMEDIATE
                      01989 ;;      _SWs_Info
                      01990 ;;      line = 618 result AOP_REG=r0x104B, size=2, left AOP_PCODE=_SWs_Info, size=2, right AOP_REG=r0x10
                            49, size=2
                      01991 ;;; /home/sdcc-builder/build/sdcc-build/orig/sdcc/src/pic14/genarith.c:142:genPlusIncr *{*
                      01992 ;; ***  genPlusIncr  144
                      01993 ;;      result AOP_REG, left AOP_PCODE, right AOP_REG
                      01994 ;; ***  genPlus  717
                      01995 ;;      833: aopGet AOP_PCODE type PO_IMMEDIATE
                      01996 ;;      _SWs_Info
                      01997 ;; >>> /home/sdcc-builder/build/sdcc-build/orig/sdcc/src/pic14/genarith.c:726:genPlus
                      01998 ;;      1109 rIdx = r0x1049 
0215   08??           01999         MOVF    r0x1018,W
                      02000 ;; >>> /home/sdcc-builder/build/sdcc-build/orig/sdcc/src/pic14/genarith.c:735:genPlus
0216   3E??           02001         ADDLW   (_SWs_Info + 0)
                      02002 ;; >>> /home/sdcc-builder/build/sdcc-build/orig/sdcc/src/pic14/genarith.c:736:genPlus
                      02003 ;;      1109 rIdx = r0x104B 
0217   00??           02004         MOVWF   r0x101A
                      02005 ;; >>> /home/sdcc-builder/build/sdcc-build/orig/sdcc/src/pic14/genarith.c:771:genPlus
0218   30??           02006         MOVLW   high (_SWs_Info + 0)
                      02007 ;; >>> /home/sdcc-builder/build/sdcc-build/orig/sdcc/src/pic14/genarith.c:772:genPlus
                      02008 ;;      1109 rIdx = r0x104C 
0219   00??           02009         MOVWF   r0x101B
                      02010 ;; >>> /home/sdcc-builder/build/sdcc-build/orig/sdcc/src/pic14/genarith.c:774:genPlus
                      02011 ;;      1109 rIdx = r0x104A 
021A   3000           02012         MOVLW   0x00
                      02013 ;; >>> /home/sdcc-builder/build/sdcc-build/orig/sdcc/src/pic14/genarith.c:775:genPlus
021B   1803           02014         BTFSC   STATUS,0
                      02015 ;; >>> /home/sdcc-builder/build/sdcc-build/orig/sdcc/src/pic14/genarith.c:776:genPlus
                      02016 ;;      1109 rIdx = r0x104A 
021C   0F??           02017         INCFSZ  r0x1019,W
gpasm-1.4.0 #1106 (Oct  6 2014) obj\Debug\SW.   3-31-2020  02:49:32         PAGE 40


LOC    OBJECT CODE    LINE  SOURCE TEXT
  VALUE

                      02018 ;; >>> /home/sdcc-builder/build/sdcc-build/orig/sdcc/src/pic14/genarith.c:777:genPlus
                      02019 ;;      1109 rIdx = r0x104C 
021D   07??           02020         ADDWF   r0x101B,F
                      02021 ;;; /home/sdcc-builder/build/sdcc-build/orig/sdcc/src/pic14/gen.c:2316:resultRemat *{*
                      02022 ;;; /home/sdcc-builder/build/sdcc-build/orig/sdcc/src/pic14/gen.c:6686:genPointerSet *{*
                      02023 ;; ***  genPointerSet  6687
                      02024 ;;; /home/sdcc-builder/build/sdcc-build/orig/sdcc/src/pic14/gen.c:6505:genNearPointerSet *{*
                      02025 ;; ***  genNearPointerSet  6506
                      02026 ;;      694 register type nRegs=2
                      02027 ;; ***  genNearPointerSet  6521
                      02028 ;;      line = 6523 result AOP_REG=r0x104B, size=2, left -=-, size=0, right AOP_LIT=0x01, size=1
                      02029 ;;; /home/sdcc-builder/build/sdcc-build/orig/sdcc/src/pic14/gen.c:1343:mov2w_op *{*
                      02030 ;; ***  mov2w  1381  offset=0
                      02031 ;; >>> /home/sdcc-builder/build/sdcc-build/orig/sdcc/src/pic14/gen.c:1386:mov2w
                      02032 ;;      1109 rIdx = r0x104B 
021E   08??           02033         MOVF    r0x101A,W
                      02034 ;; >>> /home/sdcc-builder/build/sdcc-build/orig/sdcc/src/pic14/gen.c:5602:setup_fsr
021F   1283 1303      02035         BANKSEL FSR
0221   0084           02036         MOVWF   FSR
                      02037 ;;; /home/sdcc-builder/build/sdcc-build/orig/sdcc/src/pic14/gen.c:5553:SetIrp *{*
                      02038 ;; >>> /home/sdcc-builder/build/sdcc-build/orig/sdcc/src/pic14/gen.c:5580:SetIrp
0222   1383           02039         BCF     STATUS,7
                      02040 ;; >>> /home/sdcc-builder/build/sdcc-build/orig/sdcc/src/pic14/gen.c:5583:SetIrp
0223   ???? ????      02041         BANKSEL r0x101B
0225   18??           02042         BTFSC   r0x101B,0
                      02043 ;; >>> /home/sdcc-builder/build/sdcc-build/orig/sdcc/src/pic14/gen.c:5584:SetIrp
0226   1783           02044         BSF     STATUS,7
                      02045 ;; ***  genNearPointerSet  6548
                      02046 ;; >>> /home/sdcc-builder/build/sdcc-build/orig/sdcc/src/pic14/gen.c:6560:genNearPointerSet
0227   3001           02047         MOVLW   0x01
                      02048 ;; >>> /home/sdcc-builder/build/sdcc-build/orig/sdcc/src/pic14/gen.c:6569:genNearPointerSet
0228   1283 1303      02049         BANKSEL INDF
022A   0080           02050         MOVWF   INDF
                      02051 ;; ***  genNearPointerSet  6577
                      02052 ;; ***  genNearPointerSet  6603
                      02053 ;;; /home/sdcc-builder/build/sdcc-build/orig/sdcc/src/pic14/gen.c:2316:resultRemat *{*
                      02054 ;; ***  genPlus  611
                      02055 ;;; /home/sdcc-builder/build/sdcc-build/orig/sdcc/src/pic14/genarith.c:612:genPlus *{*
                      02056 ;;      613
                      02057 ;;      aopForRemat 392
                      02058 ;;      418: rname _SWs_Info, val 0, const = 0
                      02059 ;;      694 register type nRegs=2
                      02060 ;;      694 register type nRegs=2
                      02061 ;;      833: aopGet AOP_PCODE type PO_IMMEDIATE
                      02062 ;;      _SWs_Info
                      02063 ;;      line = 618 result AOP_REG=r0x104B, size=2, left AOP_PCODE=_SWs_Info, size=2, right AOP_REG=r0x10
                            49, size=2
                      02064 ;;; /home/sdcc-builder/build/sdcc-build/orig/sdcc/src/pic14/genarith.c:142:genPlusIncr *{*
                      02065 ;; ***  genPlusIncr  144
                      02066 ;;      result AOP_REG, left AOP_PCODE, right AOP_REG
                      02067 ;; ***  genPlus  717
                      02068 ;;      833: aopGet AOP_PCODE type PO_IMMEDIATE
                      02069 ;;      _SWs_Info
gpasm-1.4.0 #1106 (Oct  6 2014) obj\Debug\SW.   3-31-2020  02:49:32         PAGE 41


LOC    OBJECT CODE    LINE  SOURCE TEXT
  VALUE

                      02070 ;; >>> /home/sdcc-builder/build/sdcc-build/orig/sdcc/src/pic14/genarith.c:726:genPlus
                      02071 ;;      1109 rIdx = r0x1049 
                      02072         .line   55; "SW.c"      SWs_Info[index].sw_samples[1] = SW_RELEASED_LEVEL;
022B   ???? ????      02073         BANKSEL r0x1018
022D   08??           02074         MOVF    r0x1018,W
                      02075 ;; >>> /home/sdcc-builder/build/sdcc-build/orig/sdcc/src/pic14/genarith.c:735:genPlus
022E   3E??           02076         ADDLW   (_SWs_Info + 0)
                      02077 ;; >>> /home/sdcc-builder/build/sdcc-build/orig/sdcc/src/pic14/genarith.c:736:genPlus
                      02078 ;;      1109 rIdx = r0x104B 
022F   00??           02079         MOVWF   r0x101A
                      02080 ;; >>> /home/sdcc-builder/build/sdcc-build/orig/sdcc/src/pic14/genarith.c:771:genPlus
0230   30??           02081         MOVLW   high (_SWs_Info + 0)
                      02082 ;; >>> /home/sdcc-builder/build/sdcc-build/orig/sdcc/src/pic14/genarith.c:772:genPlus
                      02083 ;;      1109 rIdx = r0x104C 
0231   00??           02084         MOVWF   r0x101B
                      02085 ;; >>> /home/sdcc-builder/build/sdcc-build/orig/sdcc/src/pic14/genarith.c:774:genPlus
                      02086 ;;      1109 rIdx = r0x104A 
0232   08??           02087         MOVF    r0x1019,W
                      02088 ;; >>> /home/sdcc-builder/build/sdcc-build/orig/sdcc/src/pic14/genarith.c:775:genPlus
0233   1803           02089         BTFSC   STATUS,0
                      02090 ;; >>> /home/sdcc-builder/build/sdcc-build/orig/sdcc/src/pic14/genarith.c:776:genPlus
                      02091 ;;      1109 rIdx = r0x104A 
0234   0F??           02092         INCFSZ  r0x1019,W
                      02093 ;; >>> /home/sdcc-builder/build/sdcc-build/orig/sdcc/src/pic14/genarith.c:777:genPlus
                      02094 ;;      1109 rIdx = r0x104C 
0235   07??           02095         ADDWF   r0x101B,F
                      02096 ;;; /home/sdcc-builder/build/sdcc-build/orig/sdcc/src/pic14/gen.c:2316:resultRemat *{*
                      02097 ;; ***  genPlus  611
                      02098 ;;; /home/sdcc-builder/build/sdcc-build/orig/sdcc/src/pic14/genarith.c:612:genPlus *{*
                      02099 ;;      694 register type nRegs=2
                      02100 ;;      694 register type nRegs=2
                      02101 ;;      line = 618 result AOP_REG=r0x104B, size=2, left AOP_REG=r0x104B, size=2, right AOP_LIT=0x01, siz
                            e=1
                      02102 ;;; /home/sdcc-builder/build/sdcc-build/orig/sdcc/src/pic14/genarith.c:142:genPlusIncr *{*
                      02103 ;; ***  genPlusIncr  144
                      02104 ;;      result AOP_REG, left AOP_REG, right AOP_LIT
                      02105 ;;      genPlusIncr  156
                      02106 ;; >>> /home/sdcc-builder/build/sdcc-build/orig/sdcc/src/pic14/genarith.c:168:genPlusIncr
                      02107 ;;      1109 rIdx = r0x104B 
0236   0A??           02108         INCF    r0x101A,F
                      02109 ;; >>> /home/sdcc-builder/build/sdcc-build/orig/sdcc/src/pic14/genarith.c:172:genPlusIncr
0237   1903           02110         BTFSC   STATUS,2
                      02111 ;; >>> /home/sdcc-builder/build/sdcc-build/orig/sdcc/src/pic14/genarith.c:173:genPlusIncr
                      02112 ;;      1109 rIdx = r0x104C 
0238   0A??           02113         INCF    r0x101B,F
                      02114 ;;; /home/sdcc-builder/build/sdcc-build/orig/sdcc/src/pic14/gen.c:2316:resultRemat *{*
                      02115 ;;; /home/sdcc-builder/build/sdcc-build/orig/sdcc/src/pic14/gen.c:6686:genPointerSet *{*
                      02116 ;; ***  genPointerSet  6687
                      02117 ;;; /home/sdcc-builder/build/sdcc-build/orig/sdcc/src/pic14/gen.c:6505:genNearPointerSet *{*
                      02118 ;; ***  genNearPointerSet  6506
                      02119 ;;      694 register type nRegs=2
                      02120 ;; ***  genNearPointerSet  6521
                      02121 ;;      line = 6523 result AOP_REG=r0x104B, size=2, left -=-, size=0, right AOP_LIT=0x01, size=1
gpasm-1.4.0 #1106 (Oct  6 2014) obj\Debug\SW.   3-31-2020  02:49:32         PAGE 42


LOC    OBJECT CODE    LINE  SOURCE TEXT
  VALUE

                      02122 ;;; /home/sdcc-builder/build/sdcc-build/orig/sdcc/src/pic14/gen.c:1343:mov2w_op *{*
                      02123 ;; ***  mov2w  1381  offset=0
                      02124 ;; >>> /home/sdcc-builder/build/sdcc-build/orig/sdcc/src/pic14/gen.c:1386:mov2w
                      02125 ;;      1109 rIdx = r0x104B 
0239   08??           02126         MOVF    r0x101A,W
                      02127 ;; >>> /home/sdcc-builder/build/sdcc-build/orig/sdcc/src/pic14/gen.c:5602:setup_fsr
023A   1283 1303      02128         BANKSEL FSR
023C   0084           02129         MOVWF   FSR
                      02130 ;;; /home/sdcc-builder/build/sdcc-build/orig/sdcc/src/pic14/gen.c:5553:SetIrp *{*
                      02131 ;; >>> /home/sdcc-builder/build/sdcc-build/orig/sdcc/src/pic14/gen.c:5580:SetIrp
023D   1383           02132         BCF     STATUS,7
                      02133 ;; >>> /home/sdcc-builder/build/sdcc-build/orig/sdcc/src/pic14/gen.c:5583:SetIrp
023E   ???? ????      02134         BANKSEL r0x101B
0240   18??           02135         BTFSC   r0x101B,0
                      02136 ;; >>> /home/sdcc-builder/build/sdcc-build/orig/sdcc/src/pic14/gen.c:5584:SetIrp
0241   1783           02137         BSF     STATUS,7
                      02138 ;; ***  genNearPointerSet  6548
                      02139 ;; >>> /home/sdcc-builder/build/sdcc-build/orig/sdcc/src/pic14/gen.c:6560:genNearPointerSet
0242   3001           02140         MOVLW   0x01
                      02141 ;; >>> /home/sdcc-builder/build/sdcc-build/orig/sdcc/src/pic14/gen.c:6569:genNearPointerSet
0243   1283 1303      02142         BANKSEL INDF
0245   0080           02143         MOVWF   INDF
                      02144 ;; ***  genNearPointerSet  6577
                      02145 ;; ***  genNearPointerSet  6603
                      02146 ;;; /home/sdcc-builder/build/sdcc-build/orig/sdcc/src/pic14/gen.c:2316:resultRemat *{*
                      02147 ;; ***  genPlus  611
                      02148 ;;; /home/sdcc-builder/build/sdcc-build/orig/sdcc/src/pic14/genarith.c:612:genPlus *{*
                      02149 ;;      613
                      02150 ;;      aopForRemat 392
                      02151 ;;      418: rname _SWs_Info, val 0, const = 0
                      02152 ;;      694 register type nRegs=2
                      02153 ;;      694 register type nRegs=2
                      02154 ;;      833: aopGet AOP_PCODE type PO_IMMEDIATE
                      02155 ;;      _SWs_Info
                      02156 ;;      line = 618 result AOP_REG=r0x1049, size=2, left AOP_PCODE=_SWs_Info, size=2, right AOP_REG=r0x10
                            49, size=2
                      02157 ;;; /home/sdcc-builder/build/sdcc-build/orig/sdcc/src/pic14/genarith.c:142:genPlusIncr *{*
                      02158 ;; ***  genPlusIncr  144
                      02159 ;;      result AOP_REG, left AOP_PCODE, right AOP_REG
                      02160 ;; ***  genPlus  717
                      02161 ;;      833: aopGet AOP_PCODE type PO_IMMEDIATE
                      02162 ;;      _SWs_Info
                      02163 ;; >>> /home/sdcc-builder/build/sdcc-build/orig/sdcc/src/pic14/genarith.c:726:genPlus
                      02164 ;;      1109 rIdx = r0x1049 
                      02165         .line   58; "SW.c"      SWs_Info[index].sw_state = SW_RELEASED;
0246   ???? ????      02166         BANKSEL r0x1018
0248   08??           02167         MOVF    r0x1018,W
                      02168 ;; >>> /home/sdcc-builder/build/sdcc-build/orig/sdcc/src/pic14/genarith.c:735:genPlus
0249   3E??           02169         ADDLW   (_SWs_Info + 0)
                      02170 ;; >>> /home/sdcc-builder/build/sdcc-build/orig/sdcc/src/pic14/genarith.c:736:genPlus
                      02171 ;;      1109 rIdx = r0x1049 
024A   00??           02172         MOVWF   r0x1018
                      02173 ;; >>> /home/sdcc-builder/build/sdcc-build/orig/sdcc/src/pic14/genarith.c:749:genPlus
gpasm-1.4.0 #1106 (Oct  6 2014) obj\Debug\SW.   3-31-2020  02:49:32         PAGE 43


LOC    OBJECT CODE    LINE  SOURCE TEXT
  VALUE

                      02174 ;;      1109 rIdx = r0x104A 
024B   08??           02175         MOVF    r0x1019,W
                      02176 ;; >>> /home/sdcc-builder/build/sdcc-build/orig/sdcc/src/pic14/genarith.c:750:genPlus
024C   1803           02177         BTFSC   STATUS,0
                      02178 ;; >>> /home/sdcc-builder/build/sdcc-build/orig/sdcc/src/pic14/genarith.c:751:genPlus
                      02179 ;;      1109 rIdx = r0x104A 
024D   0F??           02180         INCFSZ  r0x1019,W
                      02181 ;; >>> /home/sdcc-builder/build/sdcc-build/orig/sdcc/src/pic14/genarith.c:752:genPlus
024E   3E??           02182         ADDLW   high (_SWs_Info + 0)
                      02183 ;; >>> /home/sdcc-builder/build/sdcc-build/orig/sdcc/src/pic14/genarith.c:753:genPlus
                      02184 ;;      1109 rIdx = r0x104A 
024F   00??           02185         MOVWF   r0x1019
                      02186 ;;; /home/sdcc-builder/build/sdcc-build/orig/sdcc/src/pic14/gen.c:2316:resultRemat *{*
                      02187 ;; ***  genPlus  611
                      02188 ;;; /home/sdcc-builder/build/sdcc-build/orig/sdcc/src/pic14/genarith.c:612:genPlus *{*
                      02189 ;;      694 register type nRegs=2
                      02190 ;;      694 register type nRegs=2
                      02191 ;;      line = 618 result AOP_REG=r0x1049, size=2, left AOP_REG=r0x1049, size=2, right AOP_LIT=0x02, siz
                            e=1
                      02192 ;;; /home/sdcc-builder/build/sdcc-build/orig/sdcc/src/pic14/genarith.c:142:genPlusIncr *{*
                      02193 ;; ***  genPlusIncr  144
                      02194 ;;      result AOP_REG, left AOP_REG, right AOP_LIT
                      02195 ;;      genPlusIncr  156
                      02196 ;;      genPlusIncr  180
                      02197 ;;      adding lit to something. size 2
                      02198 ;;; /home/sdcc-builder/build/sdcc-build/orig/sdcc/src/pic14/genarith.c:269:genAddLit *{*
                      02199 ;; ***  genAddLit  270
                      02200 ;; hi = 0       genAddLit  328
                      02201 ;; >>> /home/sdcc-builder/build/sdcc-build/orig/sdcc/src/pic14/genarith.c:344:genAddLit
0250   3002           02202         MOVLW   0x02
                      02203 ;; >>> /home/sdcc-builder/build/sdcc-build/orig/sdcc/src/pic14/genarith.c:345:genAddLit
                      02204 ;;      1109 rIdx = r0x1049 
0251   07??           02205         ADDWF   r0x1018,F
                      02206 ;; >>> /home/sdcc-builder/build/sdcc-build/orig/sdcc/src/pic14/genarith.c:346:genAddLit
0252   1803           02207         BTFSC   STATUS,0
                      02208 ;; >>> /home/sdcc-builder/build/sdcc-build/orig/sdcc/src/pic14/genarith.c:347:genAddLit
                      02209 ;;      1109 rIdx = r0x104A 
0253   0A??           02210         INCF    r0x1019,F
                      02211 ;; ***  addSign  861
                      02212 ;;; /home/sdcc-builder/build/sdcc-build/orig/sdcc/src/pic14/genarith.c:862:addSign *{*
                      02213 ;;; /home/sdcc-builder/build/sdcc-build/orig/sdcc/src/pic14/gen.c:2316:resultRemat *{*
                      02214 ;;; /home/sdcc-builder/build/sdcc-build/orig/sdcc/src/pic14/gen.c:6686:genPointerSet *{*
                      02215 ;; ***  genPointerSet  6687
                      02216 ;;; /home/sdcc-builder/build/sdcc-build/orig/sdcc/src/pic14/gen.c:6505:genNearPointerSet *{*
                      02217 ;; ***  genNearPointerSet  6506
                      02218 ;;      694 register type nRegs=2
                      02219 ;; ***  genNearPointerSet  6521
                      02220 ;;      line = 6523 result AOP_REG=r0x1049, size=2, left -=-, size=0, right AOP_LIT=0x00, size=1
                      02221 ;;; /home/sdcc-builder/build/sdcc-build/orig/sdcc/src/pic14/gen.c:1343:mov2w_op *{*
                      02222 ;; ***  mov2w  1381  offset=0
                      02223 ;; >>> /home/sdcc-builder/build/sdcc-build/orig/sdcc/src/pic14/gen.c:1386:mov2w
                      02224 ;;      1109 rIdx = r0x1049 
0254   08??           02225         MOVF    r0x1018,W
gpasm-1.4.0 #1106 (Oct  6 2014) obj\Debug\SW.   3-31-2020  02:49:32         PAGE 44


LOC    OBJECT CODE    LINE  SOURCE TEXT
  VALUE

                      02226 ;; >>> /home/sdcc-builder/build/sdcc-build/orig/sdcc/src/pic14/gen.c:5602:setup_fsr
0255   1283 1303      02227         BANKSEL FSR
0257   0084           02228         MOVWF   FSR
                      02229 ;;; /home/sdcc-builder/build/sdcc-build/orig/sdcc/src/pic14/gen.c:5553:SetIrp *{*
                      02230 ;; >>> /home/sdcc-builder/build/sdcc-build/orig/sdcc/src/pic14/gen.c:5580:SetIrp
0258   1383           02231         BCF     STATUS,7
                      02232 ;; >>> /home/sdcc-builder/build/sdcc-build/orig/sdcc/src/pic14/gen.c:5583:SetIrp
0259   ???? ????      02233         BANKSEL r0x1019
025B   18??           02234         BTFSC   r0x1019,0
                      02235 ;; >>> /home/sdcc-builder/build/sdcc-build/orig/sdcc/src/pic14/gen.c:5584:SetIrp
025C   1783           02236         BSF     STATUS,7
                      02237 ;; ***  genNearPointerSet  6548
                      02238 ;; >>> /home/sdcc-builder/build/sdcc-build/orig/sdcc/src/pic14/gen.c:6560:genNearPointerSet
025D   3000           02239         MOVLW   0x00
                      02240 ;; >>> /home/sdcc-builder/build/sdcc-build/orig/sdcc/src/pic14/gen.c:6569:genNearPointerSet
025E   1283 1303      02241         BANKSEL INDF
0260   0080           02242         MOVWF   INDF
                      02243 ;; ***  genNearPointerSet  6577
                      02244 ;; ***  genNearPointerSet  6603
                      02245 ;;; /home/sdcc-builder/build/sdcc-build/orig/sdcc/src/pic14/gen.c:2316:resultRemat *{*
                      02246 ;; ***  genPlus  611
                      02247 ;;; /home/sdcc-builder/build/sdcc-build/orig/sdcc/src/pic14/genarith.c:612:genPlus *{*
                      02248 ;;      694 register type nRegs=1
                      02249 ;;      575
                      02250 ;;      line = 618 result AOP_REG=r0x1048, size=1, left AOP_REG=r0x1048, size=1, right AOP_LIT=0x01, siz
                            e=1
                      02251 ;;; /home/sdcc-builder/build/sdcc-build/orig/sdcc/src/pic14/genarith.c:142:genPlusIncr *{*
                      02252 ;; ***  genPlusIncr  144
                      02253 ;;      result AOP_REG, left AOP_REG, right AOP_LIT
                      02254 ;;      genPlusIncr  156
                      02255 ;; >>> /home/sdcc-builder/build/sdcc-build/orig/sdcc/src/pic14/genarith.c:168:genPlusIncr
                      02256 ;;      1109 rIdx = r0x1048 
                      02257         .line   51; "SW.c"      for (index = SW_PLUS; index < N_SWITCHES; index++)
0261   ???? ????      02258         BANKSEL r0x1017
0263   0A??           02259         INCF    r0x1017,F
                      02260 ;;; /home/sdcc-builder/build/sdcc-build/orig/sdcc/src/pic14/gen.c:2316:resultRemat *{*
                      02261 ;;; /home/sdcc-builder/build/sdcc-build/orig/sdcc/src/pic14/gen.c:3583:genCmpLt *{*
                      02262 ;; ***  genCmpLt  3584
                      02263 ;;      694 register type nRegs=1
                      02264 ;;; /home/sdcc-builder/build/sdcc-build/orig/sdcc/src/pic14/gen.c:3294:genCmp *{*
                      02265 ;;unsigned compare: left < lit(0x3=3), size=1
                      02266 ;; >>> /home/sdcc-builder/build/sdcc-build/orig/sdcc/src/pic14/gen.c:3265:pic14_mov2w_regOrLit
0264   3003           02267         MOVLW   0x03
                      02268 ;; >>> /home/sdcc-builder/build/sdcc-build/orig/sdcc/src/pic14/gen.c:3432:genCmp
                      02269 ;;      1109 rIdx = r0x1048 
0265   02??           02270         SUBWF   r0x1017,W
                      02271 ;;; /home/sdcc-builder/build/sdcc-build/orig/sdcc/src/pic14/gen.c:3237:genSkipc *{*
                      02272 ;; >>> /home/sdcc-builder/build/sdcc-build/orig/sdcc/src/pic14/gen.c:3244:genSkipc
0266   1C03           02273         BTFSS   STATUS,0
                      02274 ;; >>> /home/sdcc-builder/build/sdcc-build/orig/sdcc/src/pic14/gen.c:3246:genSkipc
                      02275 ;; ***  popGetLabel  key=2, label offset 4
0267   2???           02276         GOTO    _00106_DS_
                      02277 ;;genSkipc:3247: created from rifx:027A5DF4
gpasm-1.4.0 #1106 (Oct  6 2014) obj\Debug\SW.   3-31-2020  02:49:32         PAGE 45


LOC    OBJECT CODE    LINE  SOURCE TEXT
  VALUE

                      02278 ;;; /home/sdcc-builder/build/sdcc-build/orig/sdcc/src/pic14/gen.c:2316:resultRemat *{*
                      02279 ;;; /home/sdcc-builder/build/sdcc-build/orig/sdcc/src/pic14/gen.c:2316:resultRemat *{*
                      02280 ;;; /home/sdcc-builder/build/sdcc-build/orig/sdcc/src/pic14/gen.c:2760:genLabel *{*
                      02281 ;; ***  genLabel  2763
                      02282 ;;; /home/sdcc-builder/build/sdcc-build/orig/sdcc/src/pic14/gen.c:2316:resultRemat *{*
                      02283 ;;; /home/sdcc-builder/build/sdcc-build/orig/sdcc/src/pic14/gen.c:2528:genEndFunction *{*
                      02284 ;; ***  genEndFunction  2530
0268   0008           02285         RETURN  
                      02286 ; exit point of _SW_Init
                      02287 ;;; /home/sdcc-builder/build/sdcc-build/orig/sdcc/src/pic14/gen.c:7426:genpic14Code *{*
                      02288 
                      02289 
                      02290 ;       code size estimation:
                      02291 ;         385+  116 =   501 instructions ( 1234 byte)
                      02292 
                      02293         end
gpasm-1.4.0 #1106 (Oct  6 2014) obj\Debug\SW.   3-31-2020  02:49:32         PAGE 46


SYMBOL TABLE
  LABEL                             VALUE

ACKDT                             00000005
ACKEN                             00000004
ACKSTAT                           00000006
ADCON0                            0000001F
ADCON1                            0000009F
ADCS0                             00000006
ADCS1                             00000007
ADCS2                             00000006
ADDEN                             00000003
ADFM                              00000007
ADIE                              00000006
ADIF                              00000006
ADON                              00000000
ADRESH                            0000001E
ADRESL                            0000009E
BCLIE                             00000003
BCLIF                             00000003
BF                                00000000
BRGH                              00000002
C                                 00000000
C1INV                             00000004
C1OUT                             00000006
C2INV                             00000005
C2OUT                             00000007
CCP1CON                           00000017
CCP1IE                            00000002
CCP1IF                            00000002
CCP1M0                            00000000
CCP1M1                            00000001
CCP1M2                            00000002
CCP1M3                            00000003
CCP1X                             00000005
CCP1Y                             00000004
CCP2CON                           0000001D
CCP2IE                            00000000
CCP2IF                            00000000
CCP2M0                            00000000
CCP2M1                            00000001
CCP2M2                            00000002
CCP2M3                            00000003
CCP2X                             00000005
CCP2Y                             00000004
CCPR1                             00000015
CCPR1H                            00000016
CCPR1L                            00000015
CCPR2                             0000001B
CCPR2H                            0000001C
CCPR2L                            0000001B
CHS0                              00000003
CHS1                              00000004
CHS2                              00000005
CIS                               00000003
CKE                               00000006
gpasm-1.4.0 #1106 (Oct  6 2014) obj\Debug\SW.   3-31-2020  02:49:32         PAGE 47


SYMBOL TABLE
  LABEL                             VALUE 

CKP                               00000004
CM0                               00000000
CM1                               00000001
CM2                               00000002
CMCON                             0000009C
CMIE                              00000006
CMIF                              00000006
CREN                              00000004
CSRC                              00000007
CVR0                              00000000
CVR1                              00000001
CVR2                              00000002
CVR3                              00000003
CVRCON                            0000009D
CVREN                             00000007
CVROE                             00000006
CVRR                              00000005
D                                 00000005
DATA_ADDRESS                      00000005
DC                                00000001
D_A                               00000005
D_NOT_A                           00000005
EEADR                             0000010D
EEADRH                            0000010F
EECON1                            0000018C
EECON2                            0000018D
EEDATA                            0000010C
EEDATH                            0000010E
EEIE                              00000004
EEIF                              00000004
EEPGD                             00000007
F                                 00000001
FERR                              00000002
FSR                               00000004
GCEN                              00000007
GIE                               00000007
GO                                00000002
GO_DONE                           00000002
GO_NOT_DONE                       00000002
I2C_DATA                          00000005
I2C_READ                          00000002
I2C_START                         00000003
I2C_STOP                          00000004
IBF                               00000007
IBOV                              00000005
INDF                              00000000
INTCON                            0000000B
INTE                              00000004
INTEDG                            00000006
INTF                              00000001
IRP                               00000007
NOT_A                             00000005
NOT_ADDRESS                       00000005
gpasm-1.4.0 #1106 (Oct  6 2014) obj\Debug\SW.   3-31-2020  02:49:32         PAGE 48


SYMBOL TABLE
  LABEL                             VALUE 

NOT_BO                            00000000
NOT_BOR                           00000000
NOT_DONE                          00000002
NOT_PD                            00000003
NOT_POR                           00000001
NOT_RBPU                          00000007
NOT_RC8                           00000006
NOT_T1SYNC                        00000002
NOT_TO                            00000004
NOT_TX8                           00000006
NOT_W                             00000002
NOT_WRITE                         00000002
OBF                               00000006
OERR                              00000001
OPTION_REG                        00000081
P                                 00000004
PCFG0                             00000000
PCFG1                             00000001
PCFG2                             00000002
PCFG3                             00000003
PCL                               00000002
PCLATH                            0000000A
PCON                              0000008E
PEIE                              00000006
PEN                               00000002
PIE1                              0000008C
PIE2                              0000008D
PIR1                              0000000C
PIR2                              0000000D
PORTA                             00000005
PORTB                             00000006
PORTC                             00000007
PORTD                             00000008
PORTE                             00000009
PR2                               00000092
PS0                               00000000
PS1                               00000001
PS2                               00000002
PSA                               00000003
PSAVE                             00000000
PSPIE                             00000007
PSPIF                             00000007
PSPMODE                           00000004
R                                 00000002
RA0                               00000000
RA1                               00000001
RA2                               00000002
RA3                               00000003
RA4                               00000004
RA5                               00000005
RB0                               00000000
RB1                               00000001
RB2                               00000002
gpasm-1.4.0 #1106 (Oct  6 2014) obj\Debug\SW.   3-31-2020  02:49:32         PAGE 49


SYMBOL TABLE
  LABEL                             VALUE 

RB3                               00000003
RB4                               00000004
RB5                               00000005
RB6                               00000006
RB7                               00000007
RBIE                              00000003
RBIF                              00000000
RC0                               00000000
RC1                               00000001
RC2                               00000002
RC3                               00000003
RC4                               00000004
RC5                               00000005
RC6                               00000006
RC7                               00000007
RC8_9                             00000006
RC9                               00000006
RCD8                              00000000
RCEN                              00000003
RCIE                              00000005
RCIF                              00000005
RCREG                             0000001A
RCSTA                             00000018
RD                                00000000
RD0                               00000000
RD1                               00000001
RD2                               00000002
RD3                               00000003
RD4                               00000004
RD5                               00000005
RD6                               00000006
RD7                               00000007
RE0                               00000000
RE1                               00000001
RE2                               00000002
READ_WRITE                        00000002
RP0                               00000005
RP1                               00000006
RSEN                              00000001
RX9                               00000006
RX9D                              00000000
R_NOT_W                           00000002
R_W                               00000002
S                                 00000003
SEN                               00000000
SMP                               00000007
SPBRG                             00000099
SPEN                              00000007
SREN                              00000005
SSAVE                             00000000
SSPADD                            00000093
SSPBUF                            00000013
SSPCON                            00000014
gpasm-1.4.0 #1106 (Oct  6 2014) obj\Debug\SW.   3-31-2020  02:49:32         PAGE 50


SYMBOL TABLE
  LABEL                             VALUE 

SSPCON2                           00000091
SSPEN                             00000005
SSPIE                             00000003
SSPIF                             00000003
SSPM0                             00000000
SSPM1                             00000001
SSPM2                             00000002
SSPM3                             00000003
SSPOV                             00000006
SSPSTAT                           00000094
STATUS                            00000003
STK00                             00000000
STK01                             00000000
STK02                             00000000
STK03                             00000000
STK04                             00000000
STK05                             00000000
STK06                             00000000
STK07                             00000000
STK08                             00000000
STK09                             00000000
STK10                             00000000
STK11                             00000000
STK12                             00000000
SYNC                              00000004
T0CS                              00000005
T0IE                              00000005
T0IF                              00000002
T0SE                              00000004
T1CKPS0                           00000004
T1CKPS1                           00000005
T1CON                             00000010
T1INSYNC                          00000002
T1OSCEN                           00000003
T1SYNC                            00000002
T2CKPS0                           00000000
T2CKPS1                           00000001
T2CON                             00000012
TMR0                              00000001
TMR0IE                            00000005
TMR0IF                            00000002
TMR1                              0000000E
TMR1CS                            00000001
TMR1H                             0000000F
TMR1IE                            00000000
TMR1IF                            00000000
TMR1L                             0000000E
TMR1ON                            00000000
TMR2                              00000011
TMR2IE                            00000001
TMR2IF                            00000001
TMR2ON                            00000002
TOUTPS0                           00000003
gpasm-1.4.0 #1106 (Oct  6 2014) obj\Debug\SW.   3-31-2020  02:49:32         PAGE 51


SYMBOL TABLE
  LABEL                             VALUE 

TOUTPS1                           00000004
TOUTPS2                           00000005
TOUTPS3                           00000006
TRISA                             00000085
TRISA0                            00000000
TRISA1                            00000001
TRISA2                            00000002
TRISA3                            00000003
TRISA4                            00000004
TRISA5                            00000005
TRISB                             00000086
TRISB0                            00000000
TRISB1                            00000001
TRISB2                            00000002
TRISB3                            00000003
TRISB4                            00000004
TRISB5                            00000005
TRISB6                            00000006
TRISB7                            00000007
TRISC                             00000087
TRISC0                            00000000
TRISC1                            00000001
TRISC2                            00000002
TRISC3                            00000003
TRISC4                            00000004
TRISC5                            00000005
TRISC6                            00000006
TRISC7                            00000007
TRISD                             00000088
TRISD0                            00000000
TRISD1                            00000001
TRISD2                            00000002
TRISD3                            00000003
TRISD4                            00000004
TRISD5                            00000005
TRISD6                            00000006
TRISD7                            00000007
TRISE                             00000089
TRISE0                            00000000
TRISE1                            00000001
TRISE2                            00000002
TRMT                              00000001
TX8_9                             00000006
TX9                               00000006
TX9D                              00000000
TXD8                              00000000
TXEN                              00000005
TXIE                              00000004
TXIF                              00000004
TXREG                             00000019
TXSTA                             00000098
UA                                00000001
W                                 00000000
gpasm-1.4.0 #1106 (Oct  6 2014) obj\Debug\SW.   3-31-2020  02:49:32         PAGE 52


SYMBOL TABLE
  LABEL                             VALUE 

WCOL                              00000007
WR                                00000001
WREN                              00000002
WRERR                             00000003
WSAVE                             00000000
Z                                 00000002
_00001_DS_                        000000E8
_00106_DS_                        00000207
_00120_DS_                        0000008C
_00123_DS_                        0000006E
_00124_DS_                        000000AB
_00125_DS_                        000000ED
_00129_DS_                        00000128
_00132_DS_                        00000151
_00136_DS_                        0000018C
_00142_DS_                        00000015
_00143_DS_                        000001B0
_00144_DS_                        000001B7
_00183_DS_                        0000000D
_00185_DS_                        000000E9
_ADCON0                           00000000
_ADCON0bits                       00000000
_ADCON1                           00000000
_ADCON1bits                       00000000
_ADRESH                           00000000
_ADRESL                           00000000
_BODEN_OFF                        00003FBF
_BODEN_ON                         00003FFF
_BOREN_OFF                        00003FBF
_BOREN_ON                         00003FFF
_CCP1CON                          00000000
_CCP1CONbits                      00000000
_CCP2CON                          00000000
_CCP2CONbits                      00000000
_CCPR1                            00000000
_CCPR1H                           00000000
_CCPR1L                           00000000
_CCPR2                            00000000
_CCPR2H                           00000000
_CCPR2L                           00000000
_CMCON                            00000000
_CMCONbits                        00000000
_CONFIG                           00002007
_CPD_OFF                          00003FFF
_CPD_ON                           00003EFF
_CP_ALL                           00001FFF
_CP_OFF                           00003FFF
_CP_ON                            00001FFF
_CVRCON                           00000000
_CVRCONbits                       00000000
_DEBUG_OFF                        00003FFF
_DEBUG_ON                         000037FF
_DEVID1                           00002006
gpasm-1.4.0 #1106 (Oct  6 2014) obj\Debug\SW.   3-31-2020  02:49:32         PAGE 53


SYMBOL TABLE
  LABEL                             VALUE 

_EEADR                            00000000
_EEADRH                           00000000
_EECON1                           00000000
_EECON1bits                       00000000
_EECON2                           00000000
_EEDATA                           00000000
_EEDATH                           00000000
_FOSC_EXTRC                       00003FFF
_FOSC_HS                          00003FFE
_FOSC_LP                          00003FFC
_FOSC_XT                          00003FFD
_FSR                              00000000
_HS_OSC                           00003FFE
_IDLOC0                           00002000
_IDLOC1                           00002001
_IDLOC2                           00002002
_IDLOC3                           00002003
_INDF                             00000000
_INTCON                           00000000
_INTCONbits                       00000000
_LP_OSC                           00003FFC
_LVP_OFF                          00003F7F
_LVP_ON                           00003FFF
_OPTION_REG                       00000000
_OPTION_REGbits                   00000000
_PCL                              00000000
_PCLATH                           00000000
_PCON                             00000000
_PCONbits                         00000000
_PIE1                             00000000
_PIE1bits                         00000000
_PIE2                             00000000
_PIE2bits                         00000000
_PIR1                             00000000
_PIR1bits                         00000000
_PIR2                             00000000
_PIR2bits                         00000000
_PORTA                            00000000
_PORTAbits                        00000000
_PORTB                            00000000
_PORTBbits                        00000000
_PORTC                            00000000
_PORTCbits                        00000000
_PORTD                            00000000
_PORTDbits                        00000000
_PORTE                            00000000
_PORTEbits                        00000000
_PR2                              00000000
_PWRTE_OFF                        00003FFF
_PWRTE_ON                         00003FF7
_RCREG                            00000000
_RCSTA                            00000000
_RCSTAbits                        00000000
gpasm-1.4.0 #1106 (Oct  6 2014) obj\Debug\SW.   3-31-2020  02:49:32         PAGE 54


SYMBOL TABLE
  LABEL                             VALUE 

_RC_OSC                           00003FFF
_SPBRG                            00000000
_SSPADD                           00000000
_SSPBUF                           00000000
_SSPCON                           00000000
_SSPCON2                          00000000
_SSPCON2bits                      00000000
_SSPCONbits                       00000000
_SSPSTAT                          00000000
_SSPSTATbits                      00000000
_STATUS                           00000000
_STATUSbits                       00000000
_SW_GetState                      000001B8
_SW_Init                          000001E4
_SW_Update                        00000000
_SW_Update_SW_counter_1_41        0000001A
_SWs_Info                         00000011
_T1CON                            00000000
_T1CONbits                        00000000
_T2CON                            00000000
_T2CONbits                        00000000
_TMR0                             00000000
_TMR1                             00000000
_TMR1H                            00000000
_TMR1L                            00000000
_TMR2                             00000000
_TMR_CheckOverFlow                00000000
_TMR_Init                         00000000
_TMR_Start                        00000000
_TMR_Stop                         00000000
_TMR_Update                       00000000
_TRISA                            00000000
_TRISAbits                        00000000
_TRISB                            00000000
_TRISBbits                        00000000
_TRISC                            00000000
_TRISCbits                        00000000
_TRISD                            00000000
_TRISDbits                        00000000
_TRISE                            00000000
_TRISEbits                        00000000
_TXREG                            00000000
_TXSTA                            00000000
_TXSTAbits                        00000000
_WDTE_OFF                         00003FFB
_WDTE_ON                          00003FFF
_WDT_OFF                          00003FFB
_WDT_ON                           00003FFF
_WRT_1FOURTH                      00003BFF
_WRT_256                          00003DFF
_WRT_HALF                         000039FF
_WRT_OFF                          00003FFF
_XT_OSC                           00003FFD
gpasm-1.4.0 #1106 (Oct  6 2014) obj\Debug\SW.   3-31-2020  02:49:32         PAGE 55


SYMBOL TABLE
  LABEL                             VALUE 

__16F877A                         00000001
__CODE_END                        00001FFF
__CODE_START                      00000000
__COMMON_RAM_END                  0000007F
__COMMON_RAM_START                00000070
__EEPROM_END                      000021FF
__EEPROM_START                    00002100
__VECTOR_INT                      00000004
__VECTOR_RESET                    00000000
__itoa                            00000000
__ltoa                            00000000
__mulchar                         00000000
__print_format                    00000000
__uitoa                           00000000
__ultoa                           00000000
_abs                              00000000
_atof                             00000000
_atoi                             00000000
_atol                             00000000
_calloc                           00000000
_code_SW_001D                     0000001D
_code_SW_00B3                     000000B3
_code_SW_01C1                     000001C1
_code_SW_020F                     0000020F
_free                             00000000
_getchar                          00000000
_gets                             00000000
_labs                             00000000
_malloc                           00000000
_printf                           00000000
_printf_small                     00000000
_putchar                          00000000
_puts                             00000000
_rand                             00000000
_realloc                          00000000
_sprintf                          00000000
_srand                            00000000
_vprintf                          00000000
_vsprintf                         00000000
r0x100B                           00000009
r0x100C                           0000000A
r0x100D                           0000000B
r0x100E                           0000000C
r0x100F                           0000000D
r0x1010                           0000000E
r0x1011                           0000000F
r0x1012                           00000010
r0x1013                           00000005
r0x1014                           00000006
r0x1015                           00000007
r0x1016                           00000008
r0x1017                           00000000
r0x1018                           00000001
gpasm-1.4.0 #1106 (Oct  6 2014) obj\Debug\SW.   3-31-2020  02:49:32         PAGE 56


SYMBOL TABLE
  LABEL                             VALUE 

r0x1019                           00000002
r0x101A                           00000003
r0x101B                           00000004

Errors   :     0
Warnings :     0 reported,     0 suppressed
Messages :     0 reported,     0 suppressed

